        Generalplus 6502 Assembler - Version 1.7.1.0  


     1                              .SYNTAX 6502
     2                              .LINKLIST
     3                              .SYMBOLS
     4                              ;==========================================
     5                              ; Include file area
     6                              ;==========================================
     7                              .INCLUDE	GPL813X.inc
     8                      <       	.IFDEF		GPL813_SERIES
     9                      <       
    10                      <       ;---------------------------------
    11                      <       GPL813P01Cx		.EQU		1
    12                      <       ;---------------------------------
    13                      <       
    14                      <       .IFNDEF GPL813X_Body_inc
    15                      <       GPL813X_Body_inc:   .EQU    1
    16                      <       ;==================================================================================
    17                      <       ; The information contained herein is the exclusive property of
    18                      <       ; Generalplus Technology Co. And shall not be distributed, reproduced,
    19                      <       ; or disclosed in whole in part without prior written permission.
    20                      <       ;       (C) COPYRIGHT 2017   Generalplus TECHNOLOGY CO.                            
    21                      <       ;                   ALL RIGHTS RESERVED
    22                      <       ; The entire notice above must be reproduced on all authorized copies.
    23                      <       ;==================================================================================
    24                      <       ;==================================================================================
    25                      <       ; Program Name: GPL813 series register declare
    26                      <       ; Applied body: GPL813 series
    27                      <       ; Programmer  : KenLiu
    28                      <       ; Description : 
    29                      <       ;             : 
    30                      <       ; History version
    31                      <       ; Rev #       Date          Who            Comments
    32                      <       ; -------  -----------    --------         ----------------------------------------
    33                      <       ;==================================================================================
    34                      <       ;==================================================================================
    35                      <       
    36                      <       		.IFNDEF	GPL813P01Ax
    37                      <       		GPL813P01Ax: 	.EQU		0
    38                      <       		.ENDIF
    39                      <       		.IFNDEF	GPL813P01Bx
    40                      <       		GPL813P01Bx: 	.EQU		0
    41                      <       		.ENDIF
    42                      <       		.IFNDEF	GPL813P01Cx
    43                      <       		GPL813P01Cx: 	.EQU		0
    44                      <       		.ENDIF
    45                      <        	 
    46                      <       .IF (GPL813P01Ax)
    47                      <       GPL813X		.EQU		1
    48                      <       .ENDIF
    49                      <       .IF (GPL813P01Bx)
    50                      <       GPL813X		.EQU		1
    51                      <       .ENDIF
    52                      <       .IF (GPL813P01Cx)
    53                      <       GPL813X		.EQU		1
    54                      <       .ENDIF
    55                      <       			.IFDEF	GPL813X
    56 00000000             <       		.PAGE0
    57                      <             
    58                      <       ;===================  IO Register  ===================
    59                      <       P_IO_PortA_Dir:     		.EQU	$00
    60                      <       P_IO_PortA_Data:			.EQU	$02
    61                      <       		
    62                      <       P_IO_PortB_Dir:				.EQU	$10
    63                      <       P_IO_PortB_Data:			.EQU	$12	
    64                      <       P_IO_PortB_Attrib:			.EQU	$14
    65                      <       
    66                      <       P_IO_PortC_Dir:     		.EQU	$01
    67                      <       P_IO_PortC_Data:			.EQU	$05
    68                      <       P_IO_PortE_Data:     		.EQU	$03
    69                      <       P_IO_PortE_DataLatch:		.EQU	$04
    70                      <       
    71                      <       P_IO_Ctrl:    			    .EQU	$06
    72                      <       P_IO_PortE_Dir:				.EQU	$0B
    73                      <       P_IO_PortD_Attrib			.EQU	$15
    74                      <       P_IO_PortD_Dir				.EQU	$11
    75                      <       P_IO_PortD_Data				.EQU	$13
    76                      <       
    77                      <       ;==============  Sleep/Wakeup Register  ==============
    78                      <       P_WAKEUP_Ctrl:			    .EQU	$08
    79                      <        D_WakeupTimer1:				.EQU	00100000B
    80                      <        D_WakeupTimer0:				.EQU	00010000B
    81                      <        D_WakeupTMBB:					.EQU	00001000B
    82                      <        D_Wakeup128Hz:					.EQU	00000100B
    83                      <        D_WakeupTMBA:					.EQU	00000010B
    84                      <        D_WakeupKey:					.EQU	00000001B
    85                      <        
    86                      <       P_SYSTEM_Ctrl:			    .EQU	$09
    87                      <       
    88                      <       ;=================  Timer Register  ==================
    89                      <       P_TIMER_TimeBase_Sel:		.EQU	$0A
    90                      <       P_TIMER_Timer0_Ctrl:		.EQU	$22
    91                      <        D_TimerEn:						.EQU	10000000B
    92                      <        D_TimerRiseEdge:				.EQU	00000000B
    93                      <        D_TimerFallEdge:				.EQU	01000000B
    94                      <        D_TimerSrcExtA:				.EQU	00000000B
    95                      <        D_TimerSrcExtA2:				.EQU	00100000B
    96                      <        D_TimerSrcA_HF:				.EQU	00000000B
    97                      <        D_TimerSrcA_HFDIV:				.EQU	00000001B
    98                      <        D_TimerSrcA_EXT:				.EQU	00000010B
    99                      <        D_TimerSrcA_VDD:				.EQU	00000011B
   100                      <        D_TimerSrcB_LF:				.EQU	00000000B
   101                      <        D_TimerSrcB_TMX:				.EQU	00000100B
   102                      <        D_TimerSrcB_EXTA:				.EQU	00001000B
   103                      <        D_TimerSrcB_VDD:				.EQU	00001100B
   104                      <       P_TIMER_TM0Data_LB:			.EQU	$20
   105                      <       P_TIMER_TM0Data_HB:			.EQU	$21
   106                      <       P_TIMER_TM0Load_Ctrl:		.EQU	$23
   107                      <       
   108                      <       P_TIMER_TM1Data:			.EQU	$25
   109                      <       P_TIMER_Timer1_Ctrl:		.EQU	$26
   110                      <        D_Timer1En:					.EQU	10000000B
   111                      <        D_Timer1_LSCK:					.EQU	00000000B
   112                      <        D_Timer1_TMBB:					.EQU	00000001B 
   113                      <        D_Timer1_HSCK:					.EQU	00000010B 
   114                      <        D_Timer1_HFDIV:				.EQU	00000011B
   115                      <       P_TIMER_TM1Load_Ctrl:		.EQU	$27
   116                      <       
   117                      <       ;==============  CPU & Clock Register  ===============
   118                      <       P_CLK_CPU_Ctrl:				.EQU	$18
   119                      <        D_RCHF_Msk:					.EQU	11100000B
   120                      <        D_RCHF225K:					.EQU	00000000B;225k
   121                      <        D_RCHF500K:					.EQU	01000000B;500k
   122                      <        D_RCHF1800K:					.EQU	10000000B;1800k
   123                      <        D_RCHF1000K:					.EQU	11000000B;1000k
   124                      <        D_RCHF4000K:					.EQU	00100000B;4000k
   125                      <        
   126                      <        D_CPU_Msk:						.EQU	00000111B
   127                      <        D_CPU_HF:						.EQU	00000000B;HF
   128                      <        D_CPU_HF2:						.EQU	00000001B;HF/2
   129                      <        D_CPU_HF4:						.EQU	00000010B;HF/4
   130                      <        D_CPU_HF8:						.EQU	00000011B;HF/8
   131                      <        D_CPU_HF16:					.EQU	00000100B;HF/16
   132                      <       P_CLK_HFDIV_Ctrl:			.EQU	$1A
   133                      <       P_CLK_32768_En:				.EQU	$0C
   134                      <        D_LFEnable:					.EQU	00000000B 
   135                      <        D_LFDisable:					.EQU	10000000B
   136                      <        D_X32K_WEAK:					.EQU	00000100B
   137                      <        D_X32K_STRO:					.EQU	00000010B
   138                      <        D_CAP_EN:						.EQU	00000001B ;With internal CAP
   139                      <        D_CAP_DIS:						.EQU	00000000B ;With external CAP
   140                      <       ; D_256TMX_En:                   .EQU	00100000B
   141                      <       
   142                      <       ;=================  INT/NMI Register  ================
   143                      <       P_INT_Ctrl:					.EQU	$0D
   144                      <        D_IntMask:						.EQU	11111111B
   145                      <        D_Ext2Int:						.EQU	10000000B
   146                      <        D_LvdInt:						.EQU	01000000B
   147                      <        D_Timer0Int:					.EQU	00100000B
   148                      <        D_TMBBInt:						.EQU	00010000B
   149                      <        D_TMBAInt:						.EQU	00001000B
   150                      <        D_128HzInt:					.EQU	00000100B
   151                      <        D_2KHzInt:						.EQU	00000010B
   152                      <        D_ExtInt:						.EQU	00000001B
   153                      <        
   154                      <       P_INT_2KHz_Clear:			.EQU	$41
   155                      <       P_INT_128Hz_Clear:			.EQU	$42
   156                      <       P_INT_TimeBaseA_Clear:		.EQU	$43
   157                      <       P_INT_TimeBaseB_Clear:		.EQU	$44
   158                      <       
   159                      <       P_INT_Timer0_Clear:			.EQU	$45
   160                      <       P_INT_Ext_Clear:			.EQU	$40
   161                      <       
   162                      <       P_INT_Ctrl2:				.EQU	$2D
   163                      <        D_Int2Mask:             		.EQU	00000011B
   164                      <        D_Timer1Int:    				.EQU	00000001B
   165                      <       P_INT_Ext2_Clear:			.EQU	$47			
   166                      <       P_INT_Timer1_Clear:			.EQU	$48
   167                      <       
   168                      <       ;===================  LCD Register  ==================
   169                      <       P_LCD_Ctrl:					.EQU	$07
   170                      <        D_LcdConfigMask:       		.EQU	11111101B
   171                      <        D_Duty_1_8:					.EQU	10001000B
   172                      <        D_Duty_1_6:					.EQU	11001000B
   173                      <        D_Duty_1_5:					.EQU	00000100B
   174                      <        D_Duty_1_4:   					.EQU	01000100B
   175                      <        D_Duty_1_3:					.EQU	10000100B
   176                      <        
   177                      <        D_Bias_1_4:					.EQU	00000000B
   178                      <        D_Bias_1_3:					.EQU	00100000B
   179                      <        D_Bias_1_2:					.EQU	00010000B
   180                      <        D_ScanEnable:					.EQU	00000001B
   181                      <       P_LCD_VLCD_Ctrl:			.EQU	$19
   182                      <        D_Halt_Normal:					.EQU	00110000B
   183                      <        D_Halt_Green:					.EQU	00100000B
   184                      <        D_VLCD_28:						.EQU	00000000B
   185                      <        D_VLCD_30:						.EQU	00000001B
   186                      <        D_VLCD_33:						.EQU	00000010B
   187                      <        D_VLCD_VDD:					.EQU	00000011B
   188                      <       ;===============   Watch Dog Register  ===============
   189                      <       P_WDT_Flag_Clear:			.EQU	$0F
   190                      <       
   191                      <       ;==================  Reset Register  ==================
   192                      <       P_Reset_Status:			.EQU	$0E
   193                      <        D_FlagC:						.EQU	00000001B;Reset in normal mode
   194                      <        D_FlagON:						.EQU	00000010B;Reset in standby mode
   195                      <        
   196                      <       ;==================  AUDIO Register  =================
   197                      <       ; Buzzer Output Control (PD[1:0] is buzzer output)
   198                      <       P_AUDIO_BZ_Ctrl:			.EQU	$16
   199                      <        D_C32KOUT:						.EQU	10000000B
   200                      <        D_Buzzer1:						.EQU	00000010B
   201                      <        D_Buzzer0:						.EQU	00000001B
   202                      <       
   203                      <       ;==================  LVD Register  ===================
   204                      <       P_LVD_Ctrl:					.EQU	$1B
   205                      <        D_LVD_State:					.EQU	00000001B
   206                      <        D_LVD_22:						.EQU	00000000B
   207                      <        D_LVD_24:						.EQU	01000000B
   208                      <        D_LVD_27:						.EQU	10000001B
   209                      <        D_LVD_33:						.EQU	11000001B
   210                      <       P_INT_LVD_Clear:			.EQU	$46
   211                      <       
   212                      <       ;================  RFC Control Register  ==============
   213                      <       P_RFC_Ctrl:					.EQU	$17
   214                      <        D_EXT1EDG:						.EQU	10000000B
   215                      <        D_EXT2EDG:						.EQU	01000000B
   216                      <        D_RFCEN:						.EQU	00000001B
   217                      <       ;=================  PWM Register  =====================
   218                      <       P_PWMIO_Ctrl:				.EQU	$3030
   219                      <       P_PWMIO_IO0_DUTY:			.EQU	$3032
   220                      <       P_PWMIO_IO1_DUTY:			.EQU	$3033
   221                      <       P_PWMIO_IO2_DUTY:			.EQU	$3034
   222                      <       P_PWMIO_IO3_DUTY:			.EQU	$3035
   223                      <       
   224                      <       ;**********************************************************************
   225                      <       ;ROM Checksum
   226                      <       ;**********************************************************************
   227                      <       ;.IF (GPL813P01Ax+GPL813P01Bx+GPL813P01Cx)
   228                      <       ;	D_BankNum:						.EQU	1	
   229                      <       ;.ENDIF
   230                      <       
   231                      <       	D_Bank0UserRomStartAddr:		.EQU	0xE000		;0x4800 ~ 0x7FDF:User ROM Code
   232                      <       	D_Bank0UserRomEndAddr:			.EQU	0xFFDF
   233                      <       	D_NMIandResetVectorStartAddr:	.EQU	0xFFFC		;0xFFF8 ~ 0xFFF9:User ROM Code, 0xFFFA ~ 0xFFFF:NMI & Reset & IRQ vector
   234                      <       	D_NMIandResetVectorEndAddr:		.EQU	0xFFFF
   235                      <       
   236                      <       ; ========================================================================================
   237                      <       ; Macro Name	: M_UserRomChecksum
   238                      <       ; Parameters	: None
   239                      <       ; Return Value	: R_ChecksumResult: bit[7:0]
   240                      <       ;				: R_ChecksumResult + 1: bit[15:8]
   241                      <       ;				: R_ChecksumResult + 2: bit[23:16]
   242                      <       ;				: R_ChecksumResult + 3: bit[31:24]
   243                      <       ; Description	: Calculate user ROM area code checksum
   244                      <       ; Destroy		: A, Y
   245                      <       ; Example		: %M_UserRomChecksum	R_ChecksumAddrPtr, R_ChecksumResult
   246                      <       ; ========================================================================================	
   247                      <       %M_UserRomChecksum:	.MACRO	R_ChecksumAddrPtr, R_ChecksumResult
   248                      <       	
   249                      <       	LDA		#0
   250                      <       	STA		R_ChecksumResult						;Result Byte0
   251                      <       	STA		R_ChecksumResult + 1				;Result Byte1
   252                      <       	STA		R_ChecksumResult + 2				;Result Byte2
   253                      <       	STA		R_ChecksumResult + 3				;Result Byte3
   254                      <       ;=================== Bank 0 ==================================================	
   255                      <       	LDA		#.HIGH.D_Bank0UserRomStartAddr
   256                      <       	STA		R_ChecksumAddrPtr + 1				;Start High Byte
   257                      <       	LDA		#.LOW.D_Bank0UserRomStartAddr
   258                      <       	STA		R_ChecksumAddrPtr						;Start Low Byte
   259                      <       		
   260                      <       	LDY		#0	
   261                      <       
   262                      <       L_ChecksumLoop1?
   263                      <       	STA		P_WDT_Flag_Clear	
   264                      <       	CLC
   265                      <       	LDA		(R_ChecksumAddrPtr),Y
   266                      <       	ADC		R_ChecksumResult						;Result Low Byte
   267                      <       	STA		R_ChecksumResult						;Result Low Byte
   268                      <       	BCC		L_CheckAddress1?
   269                      <       	INC		R_ChecksumResult + 1				;Result Byte1
   270                      <       	BNE		L_CheckAddress1?
   271                      <       	INC		R_ChecksumResult + 2				;Result Byte3
   272                      <       	BNE		L_CheckAddress1?
   273                      <       	INC		R_ChecksumResult + 3				;Result Byte4
   274                      <       		
   275                      <       L_CheckAddress1?:
   276                      <       	LDA		R_ChecksumAddrPtr + 1				;Address Pointer HB
   277                      <       	CMP		#.HIGH.D_Bank0UserRomEndAddr		;End High Byte
   278                      <       	BNE		L_IncreaseAdd1?
   279                      <       	
   280                      <       	LDA		R_ChecksumAddrPtr						;Address Pointer LB
   281                      <       	CMP		#.LOW.D_Bank0UserRomEndAddr			;End Low Byte
   282                      <       	BEQ		L_ExitRomSum1?
   283                      <       	
   284                      <       L_IncreaseAdd1?:
   285                      <       	INC		R_ChecksumAddrPtr						;Address Pointer LB
   286                      <       	BNE		L_ChecksumLoop1?
   287                      <       	INC		R_ChecksumAddrPtr + 1				;Address Pointer HB
   288                      <       	JMP		L_ChecksumLoop1?	
   289                      <       		
   290                      <       L_ExitRomSum1?:	
   291                      <       
   292                      <       ;===================NMI & Reset Vector==================================================		
   293                      <       	LDA		#.HIGH.D_NMIandResetVectorStartAddr
   294                      <       	STA		R_ChecksumAddrPtr + 1				; Start High Byte
   295                      <       	LDA		#.LOW.D_NMIandResetVectorStartAddr
   296                      <       	STA		R_ChecksumAddrPtr						;Start Low Byte
   297                      <       		
   298                      <       L_ChecksumLoop2?
   299                      <       	STA		P_WDT_Flag_Clear		
   300                      <       	CLC
   301                      <       	LDA		(R_ChecksumAddrPtr),Y
   302                      <       	ADC		R_ChecksumResult						;Result Low Byte
   303                      <       	STA		R_ChecksumResult						;Result Low Byte
   304                      <       	BCC		L_CheckAddress2?
   305                      <       	INC		R_ChecksumResult + 1				;Result Byte2
   306                      <       	BNE		L_CheckAddress2?
   307                      <       	INC		R_ChecksumResult + 2				;Result Byte3
   308                      <       	BNE		L_CheckAddress2?
   309                      <       	INC		R_ChecksumResult + 3				;Result Byte4
   310                      <       		
   311                      <       L_CheckAddress2?:
   312                      <       	LDA		R_ChecksumAddrPtr + 1				;Address Pointer HB
   313                      <       	CMP		#.HIGH.D_NMIandResetVectorEndAddr	;End High Byte
   314                      <       	BNE		L_IncreaseAdd2?
   315                      <       	
   316                      <       	LDA		R_ChecksumAddrPtr						;Address Pointer LB
   317                      <       	CMP		#.LOW.D_NMIandResetVectorEndAddr	;End Low Byte
   318                      <       	BEQ		L_ExitRomSum2?
   319                      <       	
   320                      <       L_IncreaseAdd2?:
   321                      <       	INC		R_ChecksumAddrPtr						;Address Pointer LB
   322                      <       	BNE		L_ChecksumLoop2?
   323                      <       	INC		R_ChecksumAddrPtr + 1				;Address Pointer HB
   324                      <       	JMP		L_ChecksumLoop2?	
   325                      <       		
   326                      <       L_ExitRomSum2?:	
   327                      <       ;;=====================Bank area================================================		
   328                      <       	
   329                      <       	.ENDM
   330                      <       ;================================================================================
   331                      <       
   332                      <       			.ENDIF
   333                      <       .ENDIF
   334                      <       	.ENDIF
   335                      <       	
   336                              .INCLUDE	SYS\Macro.inc
   337                      <       
   338                      <       ;==========================================
   339                      <       ; Constant define area
   340                      <       C_SramAddrStart		    .EQU		0080H	;SRAM start address
   341                      <       C_SramAddrEnd   		.EQU		00FFH	;SRAM end address
   342                      <       C_DPRAMAddrStart		.EQU		3E00H	;DPRAM start address
   343                      <       C_DPRAMAddrEnd   		.EQU		3FFFH	;DPRAM end address
   344                      <       
   345                      <       D_Bit0					equ		01H
   346                      <       D_Bit1					equ		02H
   347                      <       D_Bit2					equ		04H
   348                      <       D_Bit3					equ		08H
   349                      <       D_Bit4					equ		10H
   350                      <       D_Bit5					equ		20H
   351                      <       D_Bit6					equ		40H
   352                      <       D_Bit7					equ		80H
   353                      <       
   354                      <       C_High		equ	0x01
   355                      <       C_Input		equ	0x00
   356                      <       
   357                      <       ;PCDir for 1  is output, for 0 is input
   358                      <       C_PC0Dir	equ	D_Bit0
   359                      <       C_PC1Dir	equ	D_Bit1
   360                      <       C_PC2Dir	equ	D_Bit2
   361                      <       C_PC3Dir	equ	D_Bit3
   362                      <       C_PC6Dir	equ	D_Bit6
   363                      <       C_PC7Dir	equ	D_Bit7
   364                      <       
   365                      <       D_BLight	equ	D_Bit2
   366                      <       D_Pulse		equ	D_Bit3
   367                      <       D_LVD		equ	D_Bit5
   368                      <       
   369                      <       
   370                      <       C_MusicOne	equ	21
   371                      <       C_MusicAll	equ	22
   372                      <       C_MusicStop	equ	23
   373                      <       C_MinVol	equ	31
   374                      <       C_MaxVol	equ	45
   375                      <       
   376                      <       ;;============================================================================
   377                      <       ;Macro Name: %M_ClearWatchDog
   378                      <       ;Purpose: Clear Watchdog
   379                      <       ;Destroy: A
   380                      <       ;;============================================================================
   381                      <       %M_ClearWatchDog:		.MACRO 
   382                      <       	LDA		#D_WDT_Clear
   383                      <       	STA		P_WDT_Flag_Clear			; Clear WDT
   384                      <       	.ENDM
   385                      <       ;;============================================================================
   386                      <       ;Macro Name: %M_DisAllInt
   387                      <       ;Purpose: Disable all interrupt 
   388                      <       ;Destroy: A
   389                      <       ;;============================================================================
   390                      <       %F_InitINT:		.MACRO
   391                      <       		LDA		#00000111b		;2HZ （bit0~2) for 111 is 4K 			;timeBaseA 2hz timeBaseB 16hz
   392                      <       		STA		P_TIMER_TimeBase_Sel		
   393                      <       		LDA		#D_2KHzInt+D_128HzInt+D_TMBAInt+D_TMBBInt;+D_Timer0Int
   394                      <       		STA		P_INT_Ctrl
   395                      <       		LDA		#00
   396                      <       		STA		P_INT_Ctrl2		;disable TMR1 INT
   397                      <       ;		LDA		#D_TimerEn+D_TimerFallEdge+D_TimerSrcA_VDD+D_TimerSrcB_LF
   398                      <       ;		STA		P_TIMER_Timer0_Ctrl
   399                      <       ;		LDA		#0xC8
   400                      <       ;		LDA		#0xFC
   401                      <       ;		STA		P_TIMER_TM0Data_LB		;8k
   402                      <       ;		LDA		#0xFF
   403                      <       ;		STA		P_TIMER_TM0Data_HB
   404                      <       	.ENDM
   405                      <       ;;============================================================================
   406                      <       ;Macro Name: %DisableLCD
   407                      <       ;Purpose: Disable LCD
   408                      <       ;Destroy: A
   409                      <       ;;============================================================================
   410                      <       %DisableLCD:		.MACRO
   411                      <       	
   412                      <       		LDA		#(D_Duty_1_5+D_Bias_1_4)	;+D_ScanEnable)
   413                      <       		STA		P_LCD_Ctrl		;1/11duty,1/4bias,normal scan
   414                      <       		
   415                      <       		LDA     #D_VLCD_33         ;VLCD = 4.5V (max value)
   416                      <       		STA     P_LCD_VLCD_Ctrl
   417                      <       	.ENDM
   418                      <       ;-----------------------------------------------------------------------------
   419                      <       ; Macro Name:	%M_InitLCD
   420                      <       ; Description:	Initialize LCD configuration after power on
   421                      <       ;-----------------------------------------------------------------------------	
   422                      <       ;%M_InitLCD:		.MACRO
   423                      <       ;    LDA		#D_LCDMode_Normal+D_LCDSetting_3Bias_4Duty+D_LCDGreenMode_En
   424                      <       ;;	LDA		#(D_LCDMode_Normal+D_LCDSetting_3Bias_4Duty)
   425                      <       ;	STA		P_LCD_Ctrl		;1/4duty,1/3bias,normal scan
   426                      <       ;
   427                      <       ;	.ENDM
   428                      <       ;-----------------------------------------------------------------------------
   429                      <       ; Macro Name:	%FillLcdDpram
   430                      <       ; Description:	Fill LCD DPRAM $50 ~$5F
   431                      <       ;-----------------------------------------------------------------------------
   432                      <       ;%FillLcdDpram	.MACRO	mData
   433                      <       ;		
   434                      <       ;		%M_ClearWatchDog
   435                      <       ;		LDX		#00H
   436                      <       ;		LDA     mData
   437                      <       ;?L_ClrDpramLoop:
   438                      <       ;		STA		$50,X
   439                      <       ;		INX
   440                      <       ;		CPX		#10H
   441                      <       ;		BNE		?L_ClrDpramLoop	
   442                      <       ;
   443                      <       ;	.ENDM
   444                      <       
   445                      <       ;;==========================================================================
   446                      <       ;;Macro Name: %M_SetPC7_InputPL                 Attrib     Dir    Data
   447                      <       ;;Purpose: Set PortC7 iutput pull low            0          0      1
   448                      <       ;;Destroy: A
   449                      <       ;;==========================================================================
   450                      <       ;%M_SetPC7_InputPL:	.MACRO
   451                      <       ;	    LDA		P_IO_PortC_Attrib
   452                      <       ;		AND     #7FH
   453                      <       ;		STA		P_IO_PortC_Attrib
   454                      <       ;		
   455                      <       ;		LDA		P_IO_PortC_Dir
   456                      <       ;		AND     #7FH
   457                      <       ;		STA		P_IO_PortC_Dir
   458                      <       ;		
   459                      <       ;		LDA		P_IO_PortC_Buffer
   460                      <       ;		ORA		#10000000B
   461                      <       ;		STA		P_IO_PortC_Data
   462                      <       ;
   463                      <       ;			.ENDM
   464                      <       ;;==========================================================================
   465                      <       ;;Macro Name: %M_SetPC7_InputPH               Attrib     Dir    Data
   466                      <       ;;Purpose: Set PortC7 iutput pull high         1          0      1
   467                      <       ;;Destroy: A
   468                      <       ;;==========================================================================
   469                      <       ;%M_SetPC7_InputPH:	.MACRO
   470                      <       ;	    LDA		P_IO_PortC_Attrib
   471                      <       ;		ORA     #80H
   472                      <       ;		STA		P_IO_PortC_Attrib
   473                      <       ;		
   474                      <       ;		LDA		P_IO_PortC_Dir
   475                      <       ;		AND     #7FH
   476                      <       ;		STA		P_IO_PortC_Dir
   477                      <       ;		
   478                      <       ;		LDA		P_IO_PortC_Buffer
   479                      <       ;		ORA		#10000000B
   480                      <       ;		STA		P_IO_PortC_Data
   481                      <       ;
   482                      <       ;			.ENDM
   483                      <       ;;==========================================================================
   484                      <       ;;Macro Name: %M_SetPC7_Output               Attrib     Dir    Data
   485                      <       ;;Purpose: Set PortC7 driving  low            0          1      0
   486                      <       ;;Destroy: A
   487                      <       ;;==========================================================================
   488                      <       ;%M_SetPC7_OutputL:	.MACRO
   489                      <       ;        LDA		P_IO_PortC_Attrib
   490                      <       ;		AND     #7FH
   491                      <       ;		STA		P_IO_PortC_Attrib
   492                      <       ;		
   493                      <       ;		LDA		P_IO_PortC_Dir
   494                      <       ;		ORA     #80H
   495                      <       ;		STA		P_IO_PortC_Dir
   496                      <       ;		
   497                      <       ;		LDA		P_IO_PortC_Buffer
   498                      <       ;		AND		#01111111b
   499                      <       ;		STA		P_IO_PortC_Data
   500                      <       ;			.ENDM
   501                      <       ;;==========================================================================
   502                      <       ;;Macro Name: %M_SetPC7_Output             Attrib     Dir    Data
   503                      <       ;;Purpose: Set PortC7 driving  high          0         1      1
   504                      <       ;;Destroy: A
   505                      <       ;;==========================================================================
   506                      <       ;%M_SetPC7_OutputH:	.MACRO
   507                      <       ;        LDA		P_IO_PortC_Attrib
   508                      <       ;		AND     #7FH
   509                      <       ;		STA		P_IO_PortC_Attrib
   510                      <       ;		
   511                      <       ;		LDA		P_IO_PortC_Dir
   512                      <       ;		ORA     #80H
   513                      <       ;		STA		P_IO_PortC_Dir
   514                      <       ;		
   515                      <       ;		LDA		P_IO_PortC_Buffer
   516                      <       ;		ORA		#10000000B
   517                      <       ;		STA		P_IO_PortC_Data
   518                      <       ;		
   519                      <       ;			.ENDM
   520                      <       ;----------------------------------------------------------
   521                      <       ;/***********************************************/
   522                      <       ;         i.L=1 
   523                      <       %bits:   .MACRO   i,L             ;BYTE i;  
   524                      <                 lda     i               ;ex.  
   525                      <                 ora     #L              ;  %bits 10H,_BIT0
   526                      <       		                   ;  10H.0=1
   527                      <                 sta     i               ;
   528                      <                .ENDM    
   529                      <       
   530                      <       ;/***********************************************/
   531                      <       ;         i.L=0
   532                      <       %bitr:   .MACRO   i,L             ;BYTE i;  
   533                      <                 lda     i               ;ex.  
   534                      <                 and     #.NOT.L         ;  %bitr 10H,_BIT0;  10H.0=0
   535                      <                 sta     i
   536                      <                .ENDM    
   537                      <       
   538                      <       ;/***********************************************/
   539                      <       ;         if(i.L==1) goto N
   540                      <       %btst:   .MACRO   i,L,N           ;BYTE i;  
   541                      <                 lda     i               ;ex.   
   542                      <                 and     #L              ;  %btst 10H,_BIT0,N
   543                      <                 bne     N               ;  if(10H.0=1) goto N 
   544                      <                .ENDM    
   545                      <                                         
   546                      <       ;/***********************************************/
   547                      <       ;         if(i.L==0) goto N
   548                      <       %btsf:   .MACRO   i,L,N           ;BYTE i;    
   549                      <                 lda     i               ;ex.   
   550                      <                 and     #L              ;  %btsf 10H,_BIT0,N
   551                      <                 beq     N               ;  if(10H.0=0) goto N 
   552                      <                .ENDM    
   553                      <       ;/***********************************************/
   554                      <       ;         if(i==#0) goto N
   555                      <       %jz:     .MACRO   i,N             ;BYTE i;
   556                      <                 lda     i               ;ex.
   557                      <                 beq     N               ;  %jz 10H,N
   558                      <                .ENDM                    ;  if(10H==#0) goto N
   559                      <       
   560                      <       ;/***********************************************/
   561                      <       ;         if(i!=#0) goto N
   562                      <       %jnz:    .MACRO   i,N             ;BYTE i;
   563                      <                 lda     i               ;ex.
   564                      <                 bne     N               ;  %jnz 10H,N
   565                      <                .ENDM                    ;  if($10!=#0) goto N
   566                      <                   
   567                      <       ;-----------------------------------------------------------------------------
   568                      <       ; Macro Name:	%InitSystem
   569                      <       ; Description:	Initial system port
   570                      <       ;-----------------------------------------------------------------------------
   571                      <       %InitSystem		.MACRO
   572                      <       		LDA		#0
   573                      <       		STA		P_Reset_Status	;Clear AC key reset flag
   574                      <       		%Enable32KLF
   575                      <       	.ENDM
   576                      <       ;-----------------------------------------------------------------------------
   577                      <       ; Macro Name:	%Disable32KLF
   578                      <       ; Description:	Disable Low Frequency
   579                      <       ;-----------------------------------------------------------------------------
   580                      <       %Disable32KLF	.MACRO
   581                      <       
   582                      <       		LDA		#D_LFDisable
   583                      <       		STA		P_CLK_32768_En
   584                      <       
   585                      <       		.ENDM
   586                      <       ;-----------------------------------------------------------------------------
   587                      <       ; Macro Name:	%Enable32KLF
   588                      <       ; Description:	Enable Low Frequency
   589                      <       ;-----------------------------------------------------------------------------
   590                      <       %Enable32KLF		.MACRO
   591                      <       
   592                      <       		LDA		#D_LFEnable
   593                      <       		STA		P_CLK_32768_En
   594                      <       
   595                      <       	.ENDM		
   596                      <       ;-----------------------------------------------------------------------------
   597                      <       ; Macro Name:	%InitLCD
   598                      <       ; Description:	Initialize LCD configuration after power on
   599                      <       ;-----------------------------------------------------------------------------	
   600                      <       %InitLCD:		.MACRO
   601                      <       
   602                      <       		LDA		#(D_Duty_1_5+D_Bias_1_3+D_ScanEnable)
   603                      <       		STA		P_LCD_Ctrl		;1/11duty,1/4bias,normal scan
   604                      <       		
   605                      <       		LDA     #D_VLCD_28            ;VLCD = 4.5V (max value)
   606                      <       ;		LDA		#D_VLCD_VDD
   607                      <       		STA     P_LCD_VLCD_Ctrl
   608                      <       	
   609                      <       	.ENDM
   610                      <       ;-----------------------------------------------------------------------------
   611                      <       ; Macro Name:	%FillSram
   612                      <       ; Description:	Fill data to SRAM whole space
   613                      <       ; Input:		mData
   614                      <       ;-----------------------------------------------------------------------------	
   615                      <       %FillSram		.MACRO	mData
   616                      <       		
   617                      <       		LDA		#.LOW.(C_SramAddrStart+2)
   618                      <       		STA		C_SramAddrStart
   619                      <       		LDA		#.HIGH.(C_SramAddrStart+2)
   620                      <       		STA		C_SramAddrStart+1
   621                      <       		
   622                      <       		LDX     #0
   623                      <       ?L_FillLoop#:
   624                      <               LDA     mData
   625                      <       		STA     (C_SramAddrStart,X)
   626                      <       		
   627                      <       		LDA     C_SramAddrStart+1
   628                      <       		CMP     #.HIGH.C_SramAddrEnd
   629                      <       		BCC     ?L_IncSramAddr#
   630                      <       		LDA     C_SramAddrStart
   631                      <       		CMP     #.LOW.C_SramAddrEnd
   632                      <       		BCS     ?L_End#
   633                      <       		
   634                      <       ?L_IncSramAddr#:    ;Increase sram address
   635                      <               INC     C_SramAddrStart
   636                      <       		BNE     ?L_FillLoop#
   637                      <       		INC     C_SramAddrStart+1
   638                      <       		%WatchDogClear
   639                      <               JMP     ?L_FillLoop#
   640                      <       ?L_End#:
   641                      <               
   642                      <               LDA     mData
   643                      <               STA     C_SramAddrStart
   644                      <               STA     C_SramAddrStart+1
   645                      <               
   646                      <               LDX		#00H
   647                      <       ?L_HSRAMloop:
   648                      <       		LDA		mData
   649                      <       		STA		$180,X
   650                      <       		INX	
   651                      <       		CPX		#80H
   652                      <       		BNE		?L_HSRAMloop
   653                      <       		
   654                      <       	.ENDM
   655                      <       	
   656                      <       ;-----------------------------------------------------------------------------
   657                      <       ; Macro Name:	%ClrSRAM
   658                      <       ; Description:	Clear SRAM $60 ~ $95F
   659                      <       ;-----------------------------------------------------------------------------	
   660                      <       %ClrSRAM:	.MACRO
   661                      <       
   662                      <       		%FillSram	#0
   663                      <       
   664                      <       	.ENDM
   665                      <       ;-----------------------------------------------------------------------------
   666                      <       ;-----------------------------------------------------------------------------
   667                      <       ; Macro Name:	%FillLcdDpram
   668                      <       ; Description:	Fill LCD DPRAM $3E00 ~$3FFF
   669                      <       ;-----------------------------------------------------------------------------
   670                      <       %FillLcdDpram	.MACRO	mData
   671                      <       		
   672                      <       		%WatchDogClear
   673                      <       		LDX		#00H
   674                      <       		LDY		#00H
   675                      <       ?L_ClrDpramLoop:
   676                      <       		LDA     mData
   677                      <       		STA		$3E00,X
   678                      <       		INY
   679                      <       		CPY		#04H
   680                      <       		BNE		?L_ClrDpramLoopI
   681                      <       		LDY		#00H
   682                      <       		TXA
   683                      <       		CLC
   684                      <       		ADC		#0CH
   685                      <       		TAX
   686                      <       ?L_ClrDpramLoopI:		
   687                      <       		INX
   688                      <       		CPX		#80H
   689                      <       		BNE		?L_ClrDpramLoop
   690                      <       	.ENDM
   691                      <       ;-----------------------------------------------------------------------------
   692                      <       %F_Initinal_IO	.MACRO
   693                      <       		LDA		#00000000b		
   694                      <       		STA		P_IO_PortA_Dir
   695                      <       		LDA		#00000000b		
   696                      <       		STA		P_IO_PortA_Data	
   697                      <       		
   698                      <       		LDA		#0
   699                      <       		STA		P_IO_PortB_Attrib
   700                      <       		LDA		#00000011b		
   701                      <       		STA		P_IO_PortB_Dir
   702                      <       		LDA		#00000000b		
   703                      <       		STA		P_IO_PortB_Data		;PB1룝츤포，PB0교밟
   704                      <       
   705                      <       		LDA		#00H
   706                      <       		STA		P_IO_PortC_Dir
   707                      <       		LDA		#00000000b
   708                      <       		STA		P_IO_PortC_Data	
   709                      <       		
   710                      <       		LDA		#00h
   711                      <       		STA		P_IO_PortD_Attrib		
   712                      <       		LDA		#00000001b		
   713                      <       		STA		P_IO_PortD_Dir
   714                      <       		STA		P_IOD_DIR_Map	
   715                      <       		LDA		#00000010b
   716                      <       		STA		P_IO_PortD_Data		
   717                      <       		STA		R_PortD_Data_Buf
   718                      <       
   719                      <       		LDA		#00000000b			;PE0/PE1/PE2 홍꼬鱗槨객숩渴흙
   720                      <       		STA		P_IO_PortE_Dir
   721                      <       		LDA		#00000000b			
   722                      <       		STA		P_IO_PortE_Data		
   723                      <       		
   724                      <       		LDA		#00
   725                      <       		STA		P_IO_Ctrl			;all as normal IO
   726                      <       		.ENDM
   727                      <       ;-----------------------------------------------------------------------------
   728                      <       ; Clear watch dog
   729                      <       %WatchDogClear	 .MACRO
   730                      <       
   731                      <       	   STA	   P_WDT_Flag_Clear
   732                      <       
   733                      <       	   .ENDM
   734                      <       ;-----------------------------------------------------------------------------
   735                      <       ; Macro Name:	%ClrPage0_60H_6FH
   736                      <       ; Description:	Clear SRAM $60 ~ $7F
   737                      <       ;-----------------------------------------------------------------------------	
   738                      <       %ClrPage0_60H_6FH:	.MACRO
   739                      <       
   740                      <       		LDX		#0FH
   741                      <       		LDA		#0
   742                      <       		
   743                      <       ?L_ClrLoop#:
   744                      <       		STA		$60,X
   745                      <       		DEX
   746                      <       		BPL		?L_ClrLoop#	
   747                      <       
   748                      <       	.ENDM
   749                      <       
   750                      <       ;
   751                      <       ;%EnableRR:		.MACRO	
   752                      <       ;;RT=>PD4	RR=>PD3	
   753                      <       ;		LDA		#D_Bit4+D_Bit5
   754                      <       ;        STA		RFC_IO_Attrib
   755                      <       ;		LDA		RB_IOD_Dir_temp
   756                      <       ;		AND		#11000011b
   757                      <       ;        ORA     #D_Bit5+D_Bit4+D_Bit3
   758                      <       ;		STA		RFC_IO_Dir
   759                      <       ;		LDA		RFC_IO_Data
   760                      <       ;		ORA     #D_Bit2
   761                      <       ;		STA     RFC_IO_Data
   762                      <       ;		
   763                      <       ;	.ENDM
   764                      <       ;;------------------------
   765                      <       ;%EnableRT:		.MACRO
   766                      <       ;	
   767                      <       ;		LDA		#D_Bit5+D_Bit3
   768                      <       ;        STA		RFC_IO_Attrib
   769                      <       ;		LDA		RB_IOD_Dir_temp
   770                      <       ;		AND		#11000011b
   771                      <       ;        ORA     #D_Bit5+D_Bit4+D_Bit3
   772                      <       ;		STA		RFC_IO_Dir
   773                      <       ;		LDA		RFC_IO_Data
   774                      <       ;		ORA     #D_Bit2
   775                      <       ;		STA     RFC_IO_Data
   776                      <       ;		
   777                      <       ;	.ENDM
   778                      <       ;;===================================================
   779                      <       ;;%EnableRR:		.MACRO	
   780                      <       ;;;RT=>PD4	RR=>PD3	
   781                      <       ;;;		LDA		RB_IOD_Dir_temp
   782                      <       ;;;		LDA		#D_Bit3+D_Bit4
   783                      <       ;;		LDA		#D_Bit4
   784                      <       ;;        STA		RFC_IO_Attrib
   785                      <       ;;		LDA		RB_IOD_Dir_temp
   786                      <       ;;		AND		#11100001b
   787                      <       ;;;        ORA     #D_Bit5+D_Bit4+D_Bit3
   788                      <       ;;		ORA		#D_Bit4+D_Bit3
   789                      <       ;;		STA		RFC_IO_Dir
   790                      <       ;;		STA		RB_IOD_Dir_temp
   791                      <       ;;		LDA		RFC_IO_Data
   792                      <       ;;		AND		#11100011b
   793                      <       ;;		ORA     #D_Bit2
   794                      <       ;;		STA     RFC_IO_Data
   795                      <       ;;		
   796                      <       ;;	.ENDM
   797                      <       ;;;------------------------
   798                      <       ;;%EnableRT:		.MACRO
   799                      <       ;;	
   800                      <       ;;		LDA		#D_Bit3
   801                      <       ;;;		LDA		#D_Bit4+D_Bit5
   802                      <       ;;        STA		RFC_IO_Attrib
   803                      <       ;;		LDA		RB_IOD_Dir_temp
   804                      <       ;;		AND		#11100001b
   805                      <       ;;        ORA     #D_Bit4+D_Bit3;+D_Bit5
   806                      <       ;;		STA		RFC_IO_Dir
   807                      <       ;;		STA		RB_IOD_Dir_temp
   808                      <       ;;		LDA		RFC_IO_Data
   809                      <       ;;		AND		#11100011b
   810                      <       ;;		ORA     #D_Bit2
   811                      <       ;;		STA     RFC_IO_Data
   812                      <       ;;		
   813                      <       ;;	.ENDM
   814                      <       ;;------------------------
   815                      <       ;%EnableRH:		.MACRO
   816                      <       ;		LDA		#D_Bit3;+D_Bit5
   817                      <       ;        STA		RFC_IO_Attrib
   818                      <       ;        LDA		RB_IOD_Dir_temp
   819                      <       ;        AND		#11100001b
   820                      <       ;        ORA     #D_Bit4+D_Bit3;+D_Bit5
   821                      <       ;		STA		RFC_IO_Dir
   822                      <       ;		STA		RB_IOD_Dir_temp
   823                      <       ;		LDA		RFC_IO_Data
   824                      <       ;		AND		#11100011b
   825                      <       ;		ORA     #D_Bit2
   826                      <       ;		STA     RFC_IO_Data
   827                      <       ;	.ENDM	
   828                      <       ;==============================================
   829                      <       %SetTimerData   .MACRO  c_data
   830                      <       
   831                      <               LDA     #.LOW.c_data
   832                      <               STA     P_TIMER_TM0Data_LB
   833                      <               LDA     #.HIGH.c_data
   834                      <               STA     P_TIMER_TM0Data_HB
   835                      <               STA     P_TIMER_TM0Load_Ctrl
   836                      <               
   837                      <       	.ENDM
   838                      <       ;-----------------------------------------------------------------------------
   839                      <       ; Macro Name:	%PushAll                                                        
   840                      <       ; Description:	Push                                                          
   841                      <       ;-----------------------------------------------------------------------------
   842                      <       %PushAll:		.MACRO                                                            
   843                      <       		PHP                                                                         
   844                      <       		PHA                                                                         
   845                      <       		TXA                                                                         
   846                      <       		PHA                                                                         
   847                      <       		TYA                                                                         
   848                      <       		PHA                                                                         
   849                      <                                                                              
   850                      <       			.ENDM                                                                   
   851                      <       ;-----------------------------------------------------------------------------
   852                      <       ; Macro Name:	%PopAll                                                         
   853                      <       ; Description:	Pop                                                           
   854                      <       ;-----------------------------------------------------------------------------
   855                      <       %PopAll:		.MACRO                                                            
   856                      <                                                           
   857                      <       		PLA                                                                         
   858                      <       		TAY                                                                         
   859                      <       		PLA                                                                         
   860                      <       		TAX                                                                         
   861                      <       		PLA                                                                         
   862                      <       		PLP                                                                         
   863                      <       			.ENDM	                                
   864                      <       		
   865                      <       ;==========================================================================
   866                      <       LCDConvert		.MACRO  com,seg
   867                      <       ;			DB	com*8+(seg/8)+00H,1<<(seg.AND.07H)
   868                      <       ;			DB	(com*8+07H)-(seg/8),1<<(seg.AND.07H)	;LB25B
   869                      <       ;			DB	com*4+(seg/8)+50H,1<<(seg.AND.07H)	;L11A\B
   870                      <       ;			DB	com*6+(seg/8)+20H,1<<(seg.AND.07H)	;L31B
   871                      <       ;LCDConvert:		.Macro	com,seg
   872                      <       ;			DB	com*4+(seg/8)+A0H,1<<(seg.AND.07H)	;GPL10A
   873                      <       			DB	com*10H+(seg/8)+00H,1<<(seg.AND.07H)	;GPL813P01;
   874                      <       			
   875                      <       			.ENDM
   876                      <       			
   877                      <       %LCD7S        .MACRO   i1c,i1s,i2c,i2s,i3c,i3s,i4c,i4s,i5c,i5s,i6c,i6s,i7c,i7s
   878                      <                      LCDConvert    i1c,i1s
   879                      <                      LCDConvert    i2c,i2s
   880                      <                      LCDConvert    i3c,i3s
   881                      <                      LCDConvert    i4c,i4s
   882                      <                      LCDConvert    i5c,i5s
   883                      <                      LCDConvert    i6c,i6s
   884                      <                      LCDConvert    i7c,i7s
   885                      <                      .ENDM
   886                      <                      
   887                      <       %LCD8S:        .MACRO   i1c,i1s,i2c,i2s,i3c,i3s,i4c,i4s,i5c,i5s,i6c,i6s,i7c,i7s,i8c,i8s
   888                      <                      LCDConvert    i1c,i1s
   889                      <                      LCDConvert    i2c,i2s
   890                      <                      LCDConvert    i3c,i3s
   891                      <                      LCDConvert    i4c,i4s
   892                      <                      LCDConvert    i5c,i5s
   893                      <                      LCDConvert    i6c,i6s
   894                      <                      LCDConvert    i7c,i7s
   895                      <       		       LCDConvert    i8c,i8s
   896                      <                      .ENDM  
   897                      <                    
   898                      <       ;**********************************************************************
   899                      <       %Define_IOPort:	.Macro
   900                      <       			lda	#(PortCD0Output+PortCD1Output+PortCD2Output+PortCD3Output)
   901                      <       			sta	P_00H_Port_Ctrl
   902                      <       			lda	#03H		;D_PortCDScan
   903                      <       			sta	P_03H_PortCD_Data
   904                      <       			.ENDM	
   905                      <       
   906                      <       ;================================================================
   907                      <       ;Kind   :Count Loop
   908                      <       ;================================================================
   909                      <       ;-------------------------------------------------------------------------
   910                      <       %DJNZ:               .MACRO       Var,Lable    ;  !=0
   911                      <                             DEC          Var
   912                      <                             BNE          Lable
   913                      <                            .ENDM
   914                              .include	RTC\RTC.inc
   915                      <       ;===================================================
   916                      <       ;            RAM Define
   917                      <       ;====================================================
   918                      <       .EXTERN			R_TimeStatus
   919                      <       HalfSecToggle			EQU		01000000B
   920                      <       
   921                      <       AddSecondOnly			EQU		00100000B
   922                      <       AddOthers				EQU		00010000B
   923                      <       .EXTERN			RTC
   924                      <       
   925                      <       ;===================================================
   926                      <       ;            Module Define
   927                      <       ;====================================================
   928                      <       .EXTERN			F_ResetRealTimeClock
   929                      <       .EXTERN			F_RealTimeClock
   930                      <       .EXTERN			F_ClearIncStatus
   931                      <       .EXTERN			INC_SEC
   932                      <       .EXTERN			INC_MIN
   933                      <       .EXTERN			INC_MIN1
   934                      <       .EXTERN			INC_MIN2
   935                      <       .EXTERN			INC_HR
   936                      <       .EXTERN			INC_HR1
   937                      <       .EXTERN			INC_HR2		;x for RAM, a for Max
   938                      <       
   939                      <       ;====================================================
   940                              .INCLUDE	SYS\Project.inc
   941                      <       
   942                      <       ;===================================================
   943                      <       ;			RAM Define
   944                      <       ;====================================================
   945                      <       .EXTERN		R_2Hz 
   946                      <       .EXTERN		R_128Hz
   947                      <       .EXTERN		R_INTFlag
   948                      <       .EXTERN		F_2HzWakeUp
   949                      <       .EXTERN		Wait1_2Sec
   950                      <       .EXTERN		power_1
   951                      <       ;.EXTERN		IOD_Attmap	
   952                      <       ;.EXTERN		IOD_Dirmap	
   953                      <       ;.EXTERN		IOD_Datmap	
   954                      <       ;===================================================
   955                      <       ;			Module Define
   956                      <       ;====================================================
   957                      <       .extern	        V_RESET	
   958                      <       .extern			L_PowerOn
   959                      <       ;====================================================
   960                      <       
   961                              .INCLUDE	Alarm\Alarm.inc
   962                      <       
   963                      <       ;===================================================
   964                      <       ;			RAM Define
   965                      <       ;====================================================
   966                      <       .EXTERN		F_JudgeRFC
   967                      <       .EXTERN		F_UpdateTHFromGXHTV4
   968                      <       .EXTERN		F_CheckLowBattery
   969                      <       
   970                      <       .EXTERN		CalculateRFC    
   971                      <       
   972                      <       .EXTERN		R_TempCH
   973                      <       .EXTERN		R_TempCL
   974                      <       .EXTERN		R_HUM
   975                      <       	
   976                      <       ;.EXTERN			R_PortD_Data_Buf
   977                      <       ;===================================================
   978                      <       ;			Module Define
   979                      <       ;====================================================
   980                      <       .EXTERN		R_KeyToneTm
   981                      <       .EXTERN		R_SoundOn
   982                      <       
   983                      <       .EXTERN		R_BatteryFlags
   984                      <       D_BatteryLow		equ	0x01
   985                      <       
   986                      <       .EXTERN		R_TrendFlags
   987                      <       D_TrendInit		equ	0x01
   988                      <       D_TrendTempUp		equ	0x02
   989                      <       D_TrendTempDown		equ	0x04
   990                      <       D_TrendTempRefresh	equ	0x08
   991                      <       D_TrendHumUp		equ	0x10
   992                      <       D_TrendHumDown		equ	0x20
   993                      <       D_TrendHumRefresh	equ	0x40
   994                      <       
   995                      <       
   996                      <       .EXTERN		R_SpecFlag	
   997                      <       .EXTERN		R_TempMin_Sign
   998                      <       .EXTERN		R_TempMax_Sign	
   999                      <       D_TempHH			equ	0x40
  1000                      <       D_TempLL			equ	0x20
  1001                      <       D_Neg				equ 0x10	;맏侊똑
  1002                      <       D_TF				equ 0x08	;빽幹똑
  1003                      <       D_HumHH				equ	0x04
  1004                      <       D_HumLL				equ	0x02
  1005                      <       .EXTERN		R_DispTemper_F	
  1006                      <       .EXTERN		R_MAXDispTemper_F
  1007                      <       .EXTERN		R_MINDispTemper_F	
  1008                      <       .EXTERN		R_DispTemper
  1009                      <       .EXTERN		R_TempMax          ; 離멕侊똑션쩌(BCD쯤，던륜뵀)
  1010                      <       .EXTERN		R_TempMin          ; 離됴侊똑션쩌(BCD쯤，던륜뵀)
  1011                      <       .EXTERN		R_DispHum		
  1012                      <       .EXTERN		R_HumMax       ; 離멕嫁똑션쩌(BCD쯤，轟륜뵀)
  1013                      <       .EXTERN		R_HumMin       ; 離됴嫁똑션쩌(BCD쯤，轟륜뵀)
  1014                      <       .EXTERN		R_TempFlag1		
  1015                      <       D_MaxTemp		equ	0x01
  1016                      <       D_MinTemp		equ	0x02
  1017                      <       
  1018                      <       ;.EXTERN		RFC_Process_Flag	
  1019                              .INCLUDE	LCD\LCD_Display.inc
  1020                      <       ;			RAM Define
  1021                      <       ;==========================================================
  1022                      <       
  1023                      <       ;===================================================
  1024                      <       ;			RAM Define
  1025                      <       ;====================================================
  1026                      <       .EXTERN			R_TempBuf
  1027                      <       R_LcdTableIndex			equ	R_TempBuf+1		;ds	1
  1028                      <       R_Display_Number		equ	R_TempBuf+2		;ds	1
  1029                      <       R_LcdSegmentPosition	equ	R_TempBuf+3		;ds	1
  1030                      <       R_Display7Times			equ	R_TempBuf+4		;ds	1
  1031                      <       .EXTERN			T_Icon
  1032                      <       .EXTERN			LcdMapTab
  1033                      <       .EXTERN			T_NumberTable
  1034                      <       .EXTERN			T_12Temp_Table
  1035                      <       ;===================================================
  1036                      <       ;			Module Define
  1037                      <       ;====================================================
  1038                      <       .EXTERN         F_ClrLcdDpram
  1039                      <       .EXTERN			F_AllDisplayLcd
  1040                      <       .EXTERN         F_ClrPage0SRAM
  1041                      <       ;.EXTERN         F_ClrSRAM
  1042                      <       .EXTERN         F_Display
  1043                      <       .EXTERN			F_DisplayHLValue
  1044                      <       .EXTERN			F_ClearAllDisplay
  1045                      <       .EXTERN			F_DisplayProductUI
  1046                      <       ;====================================================
  1047                      <       .EXTERN			F_Start_RFCMM_Value	
  1048                      <       
  1049                              .INCLUDE	RF\RF.inc
  1050                      <       ;===================================================
  1051                      <       ;            RAM Define
  1052                      <       ;====================================================
  1053                      <       .EXTERN		R_RFStatus
  1054                      <       D_RFLongRecv		equ	01h
  1055                      <       D_RFCycleMode		equ	02h
  1056                      <       D_RFNeedSync		equ	04h
  1057                      <       D_RFRecvBusy		equ	08h
  1058                      <       
  1059                      <       .EXTERN		R_RFChannel
  1060                      <       D_RFCh1			equ	01h
  1061                      <       D_RFCh2			equ	02h
  1062                      <       D_RFCh3			equ	03h
  1063                      <       D_RFAutoMode		equ	04h
  1064                      <       
  1065                      <       .EXTERN		R_RFViewChannel
  1066                      <       .EXTERN		R_RFRequestChannel
  1067                      <       
  1068                      <       .EXTERN		R_RFLongRecvTm
  1069                      <       C_RFLongRecv3Min		equ	180
  1070                      <       
  1071                      <       .EXTERN		R_RFAutoSwitchTm
  1072                      <       C_RFAutoSwitch4Sec		equ	4
  1073                      <       
  1074                      <       .EXTERN		R_RFRecvWindowTm
  1075                      <       C_RFRecvWindow2SecTick	equ	4		; 離劤葵累綠맣쀼瓊품 2 취역쌈澗，눗왯悧낀 2 취。
  1076                      <       ; C_RFRecvWindow3Sec		equ	6		; 앉寧경방목畇법 3 취悧눗왯，君綠꼇痰，괏즛鬧姦。
  1077                      <       
  1078                      <       .EXTERN		R_RF1SyncTm
  1079                      <       .EXTERN		R_RF2SyncTm
  1080                      <       .EXTERN		R_RF3SyncTm
  1081                      <       C_RFCh1Sync57Sec		equ	57
  1082                      <       C_RFCh2Sync67Sec		equ	67
  1083                      <       ; C_RFCh3Sync69Sec		equ	69		; 앉令，宅葵累/방목녑敲。
  1084                      <       C_RFCh3Sync79Sec		equ	79
  1085                      <       
  1086                      <       ; RF랙쯤葵累貫욱:
  1087                      <       ; Bit0 = 멕500us + 됴2000us
  1088                      <       ; Bit1 = 멕500us + 됴1000us
  1089                      <       C_RFBitHigh500us		equ	500
  1090                      <       C_RFBit0Low2000us		equ	2000
  1091                      <       C_RFBit1Low1000us		equ	1000
  1092                      <       C_RFPacketBits36		equ	36
  1093                      <       
  1094                      <       ; RF澗쯤됴찧욱객 50us tick 菅흙:
  1095                      <       ; 1ms = 20 tick, 2ms = 40 tick, 界岺貫 4~5ms = 80~100 tick
  1096                      <       C_RFBit1LowMinTick		equ	16
  1097                      <       C_RFBit1LowMaxTick		equ	24
  1098                      <       C_RFBit0LowMinTick		equ	36
  1099                      <       C_RFBit0LowMaxTick		equ	44
  1100                      <       C_RFStopLowMinTick		equ	80
  1101                      <       C_RFStopLowMaxTick		equ	100
  1102                      <       
  1103                      <       .EXTERN		R_RFBitCnt
  1104                      <       .EXTERN		R_RFPacket0
  1105                      <       .EXTERN		R_RFPacket1
  1106                      <       .EXTERN		R_RFPacket2
  1107                      <       .EXTERN		R_RFPacket3
  1108                      <       .EXTERN		R_RFPacket4
  1109                      <       .EXTERN		R_RFPacket5
  1110                      <       
  1111                      <       .EXTERN		R_RF1Flags
  1112                      <       .EXTERN		R_RF1IdH
  1113                      <       .EXTERN		R_RF1IdL
  1114                      <       .EXTERN		R_RF1TempH
  1115                      <       .EXTERN		R_RF1TempL
  1116                      <       .EXTERN		R_RF1Hum
  1117                      <       .EXTERN		R_RF1LostCnt
  1118                      <       
  1119                      <       .EXTERN		R_RF2Flags
  1120                      <       .EXTERN		R_RF2IdH
  1121                      <       .EXTERN		R_RF2IdL
  1122                      <       .EXTERN		R_RF2TempH
  1123                      <       .EXTERN		R_RF2TempL
  1124                      <       .EXTERN		R_RF2Hum
  1125                      <       .EXTERN		R_RF2LostCnt
  1126                      <       
  1127                      <       .EXTERN		R_RF3Flags
  1128                      <       .EXTERN		R_RF3IdH
  1129                      <       .EXTERN		R_RF3IdL
  1130                      <       .EXTERN		R_RF3TempH
  1131                      <       .EXTERN		R_RF3TempL
  1132                      <       .EXTERN		R_RF3Hum
  1133                      <       .EXTERN		R_RF3LostCnt
  1134                      <       
  1135                      <       D_RFValid		equ	01h
  1136                      <       D_RFLowBat		equ	02h
  1137                      <       D_RFLost			equ	04h
  1138                      <       D_RFNeedPair		equ	08h
  1139                      <       C_RFFail3Times		equ	3
  1140                      <       
  1141                      <       ; 杆棍혈覺榴檄貫宅 Alarm 돨 D_Trend* 꼈애괏넣寧鈴，
  1142                      <       ; 侶湳 LCD 꿔옵鹿객谿湳돨 Up/Down/Eq 털땍혼鞫刻杆棍혈覺暠깃。
  1143                      <       .EXTERN		R_RFTrendFlags
  1144                      <       D_RFTrendInit		equ	01h
  1145                      <       D_RFTrendTempUp		equ	02h
  1146                      <       D_RFTrendTempDown	equ	04h
  1147                      <       D_RFTrendTempRefresh	equ	08h
  1148                      <       D_RFTrendHumUp		equ	10h
  1149                      <       D_RFTrendHumDown	equ	20h
  1150                      <       D_RFTrendHumRefresh	equ	40h
  1151                      <       
  1152                      <       ;===================================================
  1153                      <       ;            Module Define
  1154                      <       ;====================================================
  1155                      <       .EXTERN		F_RF_Init
  1156                      <       .EXTERN		F_RF_SelectNextChannel
  1157                      <       .EXTERN		F_RF_ClearCurrentChannel
  1158                      <       .EXTERN		F_RF_StartLongReceive
  1159                      <       .EXTERN		F_RF_StopLongReceive
  1160                      <       .EXTERN		F_RF_ServiceHalfSec
  1161                      <       .EXTERN		F_RF_Service1Sec
  1162                      <       .EXTERN		F_RF_OnReceiveOK
  1163                      <       .EXTERN		F_RF_OnReceiveFail
  1164                      <       .EXTERN		F_RF_ResetPacketBuffer
  1165                      <       .EXTERN		F_RF_AppendBit0
  1166                      <       .EXTERN		F_RF_AppendBit1
  1167                      <       .EXTERN		F_RF_FeedLowPulseTicks
  1168                      <       .EXTERN		F_RF_Service2KHzSample
  1169                      <       .EXTERN		F_RF_ParsePacket
  1170                              ;.INCLUDE	RFC\RFC.inc
  1171                              ;==========================================
  1172                              ; External declare area
  1173                              ;==========================================   
  1174                              
  1175                              ;==========================================
  1176                              ; Public declare area
  1177                              ;==========================================
  1178                              .PUBLIC	        F_KeyScan	
  1179                              
  1180                              ;==========================================
  1181                              ; Public declare area
  1182                              ;==========================================
  1183                              ;.PUBLIC		R_Option
  1184                              .PUBLIC		R_Set
  1185                              .PUBLIC		R_LEDFlag	
  1186                              ;.PUBLIC		R_LampTime		;play LED time
  1187                              .PUBLIC		R_BLTime		
  1188                              .PUBLIC		R_KeyValue		
  1189                              .PUBLIC		R_KeyTemp		
  1190                              ;.PUBLIC		R_SpecFlag		
  1191                              .PUBLIC		R_LongKeyTime	
  1192                              .PUBLIC		R_SetBack					
  1193                              .PUBLIC		R_OldKeyValue
  1194                              .PUBLIC		R_DebounceCnt
  1195                              .PUBLIC		R_LEDTemp
  1196                              .PUBLIC		R_KeyFlag
  1197                              .PUBLIC		F_Check_LED
  1198                              ;.PUBLIC		InitLED
  1199                              ;.PUBLIC		Enable_KeyTone
  1200                              ;.PUBLIC		Down_Month
  1201                              ;.PUBLIC		Sub_AlmMinute
  1202                              ;.PUBLIC		Down_Year
  1203                              ;.PUBLIC		Sub_AlmHour
  1204                              ;.PUBLIC		Sub_AlmHour
  1205                              ;.PUBLIC		Down_Day
  1206                              .PUBLIC			R_KeyFlag1	
  1207                              ;==========================================
  1208                              ;Variable RAM declare area
  1209                              ;==========================================
  1210 00000000                     .PAGE0
  1211                              ;R_Option		ds	1
  1212 00000000 FF                  R_Set			ds	1
  1213                              D_SetConver		equ	02h
  1214                              D_SetTimeHour	equ	04h
  1215                              D_SetTimeMin	equ	08h
  1216                              D_SetTimeMax	equ	10h
  1217                              
  1218                              ;D_SetAConver	equ	02h
  1219                              D_SetAlarmHour	equ	02h
  1220                              D_SetAlarmMin	equ	04h
  1221                              D_SetAlarmMax	equ	08h
  1222                              
  1223                              D_SetDateYear	equ	02h
  1224                              D_SetDateMonth	equ	04h
  1225                              D_SetDateDay	equ	08h
  1226                              D_SetDateMax	equ	10h
  1227                              
  1228                              D_SetHour	equ	02h
  1229                              D_SetMin	equ	04h
  1230                              D_SetMax	equ	08h
  1231                              
  1232 00000001 FF                  R_KeyFlag		ds	1
  1233                              D_KeyTone		equ	01h
  1234                              D_EnableFastAdd	equ	02h		
  1235                              D_EnableAlarm	equ	04h
  1236                              D_EnableSnooze	equ	08h
  1237                              D_KeyRelDis		equ	10h
  1238                              D_ToneOn		equ	20h
  1239                              D_Alarming		equ	40h
  1240                              D_24Mode		equ	80h		;must for bit7/24mode
  1241                              	
  1242 00000002 FF                  R_KeyFlag1		ds	1
  1243                              D_TimeFlag			equ		01h
  1244                              D_Timering_Short	equ		02H
  1245                              D_NoKeyTone			equ		04H
  1246                              D_DC				equ		08H	
  1247                              D_EnableSnooze1		equ		10h
  1248                              
  1249 00000003 FF                  R_LEDFlag		ds	1
  1250                              D_LED_ON	equ		0x08		;轟DC唐鬼좋
  1251                              
  1252                              ;R_LampTime		ds	1		;play LED time
  1253                              ;D_LampTime		equ	20h
  1254                              
  1255 00000004 FF                  R_BLTime			ds	1
  1256                              D_8SecBL			equ	16
  1257                              D_2SecBL			equ	4
  1258                              D_20Sec				equ	40
  1259                              
  1260 00000005 FF                  Key_Status			ds		1
  1261 00000006 FF                  R_LongKeyTime		ds		1		
  1262                              	
  1263 00000007 FF                  R_TempTime			ds		1
  1264 00000008 FF                  R_SetBack			ds		1
  1265                              C_Sleep20Sec	equ	40	
  1266                              
  1267                              
  1268                              ;---------------------------------------------------
  1269                              C_LongKey2Sec		equ		4
  1270                              C_FastAdd			equ		24		;1취속8늴
  1271                              
  1272 00000009 FF                  R_KeyTemp			ds		1	
  1273 0000000A FF                  R_KeyValue			ds		1		
  1274 0000000B FF                  R_OldKeyValue		ds		1
  1275                              D_KeyFcClear		equ		0x01
  1276                              D_KeyAllTime		equ		0x02
  1277                              D_KeyLight			equ		0x04
  1278                              D_KeyUnused		equ		0x08
  1279                              
  1280                              
  1281 0000000C FF                  R_DebounceCnt		ds		1
  1282                              C_KeyDebounce		equ		2	
  1283                              ;---------------------------------------------------
  1284 0000000D FF                  R_LEDTemp		ds	1
  1285                              
  1286 0000000E FF                  R_ToneDuty		ds	1
  1287 0000000F FF                  R_ToneVol		ds	1
  1288                              ;=====================================================
  1289 00000000                     .CODE
  1290                              
  1291 00000000                     F_KeyScan:	
  1292                              		; PE0 = LIGHT, PE1 = C/F, PE2 = CH
  1293 00000000 A5 03               		LDA		P_IO_PortE_Data
  1294 00000002 29 07               		AND		#(D_Bit2+D_Bit1+D_Bit0)
  1295 00000004 F0 38               		BEQ		?ReleaseAllKey
  1296                              
  1297 00000006 A9 00               		LDA		#00H
  1298 00000008 85 09               		STA		R_KeyTemp
  1299                              
  1300 0000000A A5 03               		LDA		P_IO_PortE_Data
  1301 0000000C 29 01               		AND		#D_Bit0
  1302 0000000E F0 06               		BEQ		?L_CheckFcClearKey
  1303 00000010 A5 09               		LDA		R_KeyTemp
  1304 00000012 09 04               		ORA		#D_KeyLight
  1305 00000014 85 09               		STA		R_KeyTemp
  1306                              
  1307 00000016                     	?L_CheckFcClearKey:
  1308 00000016 A5 03               		LDA		P_IO_PortE_Data
  1309 00000018 29 02               		AND		#D_Bit1
  1310 0000001A F0 06               		BEQ		?L_CheckAllTimeKey
  1311 0000001C A5 09               		LDA		R_KeyTemp
  1312 0000001E 09 01               		ORA		#D_KeyFcClear
  1313 00000020 85 09               		STA		R_KeyTemp
  1314                              
  1315 00000022                     	?L_CheckAllTimeKey:
  1316 00000022 A5 03               		LDA		P_IO_PortE_Data
  1317 00000024 29 04               		AND		#D_Bit2
  1318 00000026 F0 06               		BEQ		?L_HaveKey
  1319 00000028 A5 09               		LDA		R_KeyTemp
  1320 0000002A 09 02               		ORA		#D_KeyAllTime
  1321 0000002C 85 09               		STA		R_KeyTemp
  1322                              
  1323 0000002E                     	?L_HaveKey:
  1324 0000002E A5 09               		LDA		R_KeyTemp
  1325 00000030 C5 0A               		CMP		R_KeyValue
  1326 00000032 F0 42               		BEQ		?CheckKeyDebounce
  1327 00000034 A5 09               		LDA		R_KeyTemp
  1328 00000036 85 0A               		STA		R_KeyValue
  1329 00000038 A9 02               		LDA		#C_KeyDebounce
  1330 0000003A 85 0C               		STA		R_DebounceCnt
  1331 0000003C 58                  		CLI
  1332 0000003D 60                  		RTS
  1333                              				
  1334 0000003E                     ?ReleaseAllKey:					;객숩姦렴
  1335                              		%btst	R_KeyFlag,D_KeyRelDis,?L_Exit	
  1336 0000003E A5 01             1           lda     R_KeyFlag               ;ex.   
  1337 00000040 29 10             1           and     #D_KeyRelDis              ;  %btst 10H,_BIT0,N
  1338 00000042 D0 1B             1           bne     ?L_Exit               ;  if(10H.0=1) goto N 
  1339 00000044 A5 0B               		LDA	R_OldKeyValue
  1340 00000046 F0 17               		BEQ	?L_Exit
  1341                              		
  1342 00000048                     	?L_Dis_KeyTone:		
  1343 00000048 A5 0B               		LDA		R_OldKeyValue
  1344 0000004A C9 04               		CMP		#D_KeyLight
  1345 0000004C D0 03               		BNE		$+5		
  1346 0000004E 4C C6 00            		JMP		Enable_LightKey			
  1347                              
  1348 00000051 C9 02               		CMP		#D_KeyAllTime
  1349 00000053 D0 03               		BNE		$+5		
  1350 00000055 4C A8 00            		JMP		Enable_AllTimeKey
  1351                              
  1352 00000058 C9 01               		CMP		#D_KeyFcClear
  1353 0000005A D0 03               		BNE		$+5		
  1354 0000005C 4C AE 00            		JMP		Enable_FcClearKey
  1355                              		
  1356 0000005F                     	?L_Exit:		        ; 쉥객숩令긴좆헌쥐，藁놔
  1357 0000005F A9 00               		LDA		#00
  1358 00000061 85 0B               		STA		R_OldKeyValue
  1359 00000063 85 0A               		STA		R_KeyValue
  1360 00000065 85 09               		STA		R_KeyTemp
  1361 00000067 A9 02               		LDA	#C_KeyDebounce
  1362 00000069 85 0C               		STA	R_DebounceCnt
  1363 0000006B A9 04               		LDA	#C_LongKey2Sec
  1364 0000006D 85 06               		STA	R_LongKeyTime
  1365                              		%bitr	R_KeyFlag,(D_EnableFastAdd+D_KeyRelDis)
  1366 0000006F A5 01             1           lda     R_KeyFlag               ;ex.  
  1367 00000071 29 ED             1           and     #.NOT.(D_EnableFastAdd+D_KeyRelDis)         ;  %bitr 10H,_BIT0;  10H.0=0
  1368 00000073 85 01             1           sta     R_KeyFlag
  1369 00000075 60                  		RTS
  1370                              		
  1371 00000076                     ?CheckKeyDebounce:
  1372 00000076 A5 0C               		LDA	R_DebounceCnt
  1373 00000078 F0 01               		BEQ	?Key_Process		
  1374 0000007A 60                  		RTS	
  1375                              
  1376 0000007B                     	?Key_Process:
  1377 0000007B A5 0A               		LDA	R_KeyValue
  1378 0000007D C5 0B               		CMP	R_OldKeyValue
  1379 0000007F F0 03               		BEQ	$+5
  1380 00000081 4C 9F 00            		JMP	Enable_NewKey	
  1381                              		
  1382                              
  1383 00000084                     Hold_Key:							;낀객객숩묘콘
  1384 00000084 A5 06               		LDA		R_LongKeyTime
  1385 00000086 D0 16               		BNE		?L_LongExit
  1386 00000088 A9 04               		LDA		#C_LongKey2Sec
  1387 0000008A 85 06               		STA		R_LongKeyTime
  1388 0000008C A5 0B               		LDA		R_OldKeyValue
  1389 0000008E 29 02               		AND		#D_KeyAllTime
  1390 00000090 D0 09               		BNE		?L_LongAllTimeKey
  1391 00000092 A5 0B               		LDA		R_OldKeyValue
  1392 00000094 29 01               		AND		#D_KeyFcClear
  1393 00000096 F0 06               		BEQ		?L_LongExit
  1394 00000098 4C BA 00            		JMP		Enable_longFcClearKey
  1395 0000009B                     	?L_LongAllTimeKey:
  1396 0000009B 4C BF 00            		JMP		Enable_longAllTimeKey
  1397 0000009E                     	?L_LongExit:
  1398 0000009E 60                  		RTS
  1399                              				
  1400 0000009F                     Enable_NewKey:
  1401 0000009F A5 0A               		LDA		R_KeyValue
  1402 000000A1 85 0B               		STA		R_OldKeyValue		
  1403 000000A3 A9 04               		LDA		#C_LongKey2Sec
  1404 000000A5 85 06               		STA		R_LongKeyTime	;낀객2취역迦셕珂
  1405 000000A7 60                  		RTS
  1406                              	
  1407 000000A8                     Enable_AllTimeKey:			; 28 방목：CH 똬객객 CH1 -> CH2 -> CH3 -> Auto 琦뻔학뻣
  1408 000000A8 20 28 01            		JSR		F_UpdateKey
  1409 000000AB 4C 00 00            		JMP		F_RF_SelectNextChannel
  1410                              ;===================FcClearKey======================	 		
  1411 000000AE                     Enable_FcClearKey:			; 똬객학뻣 C/F，Mold 女琦뻔埴令
  1412 000000AE 20 28 01            		JSR		F_UpdateKey	
  1413 000000B1 AD 00 00            		LDA		R_SpecFlag
  1414 000000B4 49 08               		EOR		#D_TF
  1415 000000B6 8D 00 00            		STA		R_SpecFlag
  1416 000000B9 60                  		RTS
  1417                              
  1418 000000BA                     Enable_longFcClearKey:
  1419 000000BA 20 28 01            		JSR		F_UpdateKey
  1420 000000BD 60                  		RTS
  1421                              
  1422 000000BE                     LongFcClearKey_Exit:
  1423 000000BE 60                  		RTS
  1424                              
  1425 000000BF                     Enable_longAllTimeKey:
  1426 000000BF 20 28 01            		JSR		F_UpdateKey
  1427 000000C2 4C 00 00            		JMP		F_RF_ClearCurrentChannel
  1428                              
  1429 000000C5                     LongAllTimeKey_Exit:
  1430 000000C5 60                  		RTS
  1431                              		
  1432                              				
  1433                              ;==========================================
  1434 000000C6                     Enable_LightKey:	
  1435 000000C6 20 28 01            		JSR		F_UpdateKey
  1436 000000C9 4C CC 00            		JMP		F_backlightOpen
  1437                              
  1438                              
  1439                              .PUBLIC		F_backlightOpen		
  1440 000000CC                     F_backlightOpen:
  1441 000000CC 58                  		CLI
  1442 000000CD A9 08               		LDA		#D_LED_ON
  1443 000000CF 85 03               		STA		R_LEDFlag
  1444 000000D1 A5 12               		LDA		P_IO_PortB_Data
  1445 000000D3 09 01               		ORA		#D_Bit0
  1446 000000D5 85 12               		STA		P_IO_PortB_Data
  1447 000000D7 A9 00               		LDA		#00H
  1448 000000D9 85 0D               		STA		R_LEDTemp
  1449 000000DB A9 10               		LDA		#D_8SecBL
  1450 000000DD 85 04               		STA		R_BLTime
  1451 000000DF 60                  		RTS
  1452                              
  1453                              		
  1454                              .PUBLIC		INT_PlayPWM
  1455 000000E0                     INT_PlayPWM:				;瞳櫓뙤쟁딧痰
  1456 000000E0 A5 03               	    LDA     R_LEDFlag
  1457 000000E2 29 08               	    AND     #D_LED_ON
  1458 000000E4 F0 07               	    BEQ     ?DisLED		; 교밟맣냥殮쌈멕됴든틱，꼇疼隣흡숭 PWM
  1459 000000E6 A5 12               		LDA		P_IO_PortB_Data
  1460 000000E8 09 01               		ORA		#D_Bit0
  1461 000000EA 85 12               		STA		P_IO_PortB_Data
  1462 000000EC 60                  		RTS
  1463                              
  1464 000000ED                     	?DisLED:
  1465 000000ED A5 12               		LDA		P_IO_PortB_Data
  1466 000000EF 29 FE               		AND		#.not.D_Bit0
  1467 000000F1 85 12               		STA		P_IO_PortB_Data
  1468 000000F3 60                  		RTS			
  1469                              		
  1470                              		
  1471                              ;		28방목뎠품끓틔청唐 12/24H 학뻣흙왯，侶몸앉珂爐 helper 邱팁귁괏즛。
  1472                              ;		Check_1224Mode:		
  1473                              ;			LDA	R_KeyFlag
  1474                              ;			EOR	#D_24Mode
  1475                              ;			STA	R_KeyFlag
  1476                              ;			RTS		
  1477                              .PUBLIC		F_PlayKeyTone		
  1478 000000F4                     F_PlayKeyTone:		;숩稜
  1479                              		%btst	R_KeyFlag1,D_NoKeyTone,?Dis_KeyTone		
  1480 000000F4 A5 02             1           lda     R_KeyFlag1               ;ex.   
  1481 000000F6 29 04             1           and     #D_NoKeyTone              ;  %btst 10H,_BIT0,N
  1482 000000F8 D0 06             1           bne     ?Dis_KeyTone               ;  if(10H.0=1) goto N 
  1483                              		%btst	R_KeyFlag,D_KeyTone,F_EnKeyTone		
  1484 000000FA A5 01             1           lda     R_KeyFlag               ;ex.   
  1485 000000FC 29 01             1           and     #D_KeyTone              ;  %btst 10H,_BIT0,N
  1486 000000FE D0 01             1           bne     F_EnKeyTone               ;  if(10H.0=1) goto N 
  1487 00000100                     	?Dis_KeyTone:	
  1488 00000100 60                  		RTS	
  1489 00000101                      F_EnKeyTone:
  1490                              		; 숩稜맣냥렷羸힘뇰랙，긁출瞳寮琦뻔쟁챈된엥遼菅뭍。
  1491 00000101 A5 01               		LDA		R_KeyFlag
  1492 00000103 29 20               		AND		#D_ToneOn
  1493 00000105 D0 0B               		BNE		?L_KeyToneExit
  1494                              		%bits	R_KeyFlag,D_ToneOn	
  1495 00000107 A5 01             1           lda     R_KeyFlag               ;ex.  
  1496 00000109 09 20             1           ora     #D_ToneOn              ;  %bits 10H,_BIT0
  1497                            1 		                   ;  10H.0=1
  1498 0000010B 85 01             1           sta     R_KeyFlag               ;
  1499 0000010D A9 08               		LDA		#08
  1500 0000010F 8D 00 00            		STA		R_KeyToneTm	
  1501 00000112                     	?L_KeyToneExit:
  1502 00000112 60                  		RTS	
  1503                              
  1504                              ;===============================================================
  1505 00000113                     	F_Check_LED:
  1506 00000113 A5 04               		LDA		R_BLTime
  1507 00000115 F0 10               		BEQ		?Exit_LED
  1508 00000117 C6 04               		DEC		R_BLTime
  1509 00000119 D0 0C               		BNE		?Exit_LED
  1510 0000011B A9 00               		LDA		#00
  1511 0000011D 85 03               		STA		R_LEDFlag
  1512 0000011F 85 0D               		STA		R_LEDTemp
  1513 00000121 A5 12               		LDA		P_IO_PortB_Data
  1514 00000123 29 FE               		AND		#.not.D_Bit0
  1515 00000125 85 12               		STA		P_IO_PortB_Data
  1516 00000127                     		?Exit_LED:		
  1517 00000127 60                  		RTS
  1518                              ;==============================================================
  1519 00000128                     F_UpdateKey:						
  1520                              		%bits	R_KeyFlag,D_KeyTone
  1521 00000128 A5 01             1           lda     R_KeyFlag               ;ex.  
  1522 0000012A 09 01             1           ora     #D_KeyTone              ;  %bits 10H,_BIT0
  1523                            1 		                   ;  10H.0=1
  1524 0000012C 85 01             1           sta     R_KeyFlag               ;
  1525                              		%bits	R_KeyFlag,D_KeyRelDis	
  1526 0000012E A5 01             1           lda     R_KeyFlag               ;ex.  
  1527 00000130 09 10             1           ora     #D_KeyRelDis              ;  %bits 10H,_BIT0
  1528                            1 		                   ;  10H.0=1
  1529 00000132 85 01             1           sta     R_KeyFlag               ;
  1530 00000134 A5 04               		LDA		R_BLTime
  1531 00000136 F0 04               		BEQ		F_UpdateKey2
  1532 00000138 A9 10               		LDA		#D_8SecBL
  1533 0000013A 85 04               		STA		R_BLTime
  1534 0000013C                     F_UpdateKey2:							
  1535 0000013C A9 28               		LDA		#C_Sleep20Sec
  1536 0000013E 85 08               		STA		R_SetBack
  1537                              		%bits	R_TimeStatus,AddOthers			
  1538 00000140 AD 00 00          1           lda     R_TimeStatus               ;ex.  
  1539 00000143 09 10             1           ora     #AddOthers              ;  %bits 10H,_BIT0
  1540                            1 		                   ;  10H.0=1
  1541 00000145 8D 00 00          1           sta     R_TimeStatus               ;
  1542 00000148 60                  		RTS	
  1543                              		
  1544                              .PUBLIC		F_2Hz_Cnt		
  1545 00000149                     F_2Hz_Cnt:
  1546 00000149 A5 06               		LDA		R_LongKeyTime
  1547 0000014B F0 02               		BEQ		CheckKeyHoldTimeout
  1548 0000014D C6 06               		DEC		R_LongKeyTime
  1549                              
  1550 0000014F                     CheckKeyHoldTimeout:
  1551 0000014F 20 70 01            		jsr		Check_SetBackTime
  1552 00000152 20 13 01            		JSR		F_Check_LED
  1553 00000155 4C 58 01            		JMP		F_Check_Temp
  1554                              ;		RTS
  1555                              		
  1556 00000158                     F_Check_Temp:
  1557                              		%btsf	R_TempFlag1,(D_MaxTemp+D_MinTemp),?Exit_Check
  1558 00000158 AD 00 00          1           lda     R_TempFlag1               ;ex.   
  1559 0000015B 29 03             1           and     #(D_MaxTemp+D_MinTemp)              ;  %btsf 10H,_BIT0,N
  1560 0000015D F0 10             1           beq     ?Exit_Check               ;  if(10H.0=0) goto N 
  1561 0000015F A5 07               		LDA		R_TempTime
  1562 00000161 F0 0C               		BEQ		?Exit_Check
  1563 00000163 C6 07               		DEC		R_TempTime
  1564 00000165 D0 08               		BNE		?Exit_Check
  1565                               		%bitr	R_TempFlag1,(D_MaxTemp+D_MinTemp) 
  1566 00000167 AD 00 00          1           lda     R_TempFlag1               ;ex.  
  1567 0000016A 29 FC             1           and     #.NOT.(D_MaxTemp+D_MinTemp)         ;  %bitr 10H,_BIT0;  10H.0=0
  1568 0000016C 8D 00 00          1           sta     R_TempFlag1
  1569 0000016F                     		?Exit_Check:		
  1570 0000016F 60                  		RTS		
  1571                              	
  1572 00000170                     Check_SetBackTime:
  1573 00000170 A5 08               		LDA		R_SetBack
  1574 00000172 F0 10               		BEQ		?L_Exit		
  1575 00000174 C6 08               		dec		R_SetBack
  1576 00000176 D0 0C               		bne		?L_Exit	
  1577 00000178 A9 00               		LDA		#00H
  1578 0000017A 85 00               		STA		R_Set
  1579                              		%bits	R_TimeStatus,AddOthers	
  1580 0000017C AD 00 00          1           lda     R_TimeStatus               ;ex.  
  1581 0000017F 09 10             1           ora     #AddOthers              ;  %bits 10H,_BIT0
  1582                            1 		                   ;  10H.0=1
  1583 00000181 8D 00 00          1           sta     R_TimeStatus               ;
  1584 00000184                     	?L_Exit:	
  1585 00000184 60                  		RTS
  1586                              		
  1587                              ;.PUBLIC		F_DC_Judge	
  1588                              ;F_DC_Judge:
  1589                              ;		LDA		P_IO_PortE_Data
  1590                              ;		AND		#D_Bit2
  1591                              ;		BNE		?L_HaveDC
  1592                              ;		%btsf	R_KeyFlag1,D_DC,?L_Exit		
  1593                              ;		%bitr	R_KeyFlag1,D_DC		
  1594                              ;		LDA		#00
  1595                              ;		STA		R_LEDFlag
  1596                              ; 		LDA     #$25        ;櫓좋欖왕궐
  1597                              ;  		STA     R_ToneVol
  1598                              ;  	?L_Exit:	
  1599                              ;  		RTS
  1600                              ;	?L_HaveDC:
  1601                              ;		%btst	R_KeyFlag1,D_DC,?L_Exit	
  1602                              ;		%bits	R_KeyFlag1,D_DC			
  1603                              ;		JMP		HasDC_LED_1		
  1604                              ;;		RTS	
  1605                              ;	
  1606                              .PUBLIC		F_initSet		
  1607 00000185                     F_initSet:
  1608                              		; LDA		#D_TimeMode
  1609                              		; STA		R_Mode
  1610 00000185 A9 00               		LDA		#00H
  1611 00000187 85 00               		STA		R_Set
  1612 00000189 A9 28               		LDA		#C_Sleep20Sec
  1613 0000018B 85 08               		STA		R_SetBack
  1614 0000018D 4C 00 00            		JMP		F_Start_RFCMM_Value
  1615                              ;		RTS
  1616                              	
  1617                              .end
0 Error(s), 0 Warning(s).
