        Generalplus 6502 Assembler - Version 1.7.1.0  


     1                              ;==================================================================================
     2                              ; Name                  : RF.asm
     3                              ; Applied Body          : GPL813X
     4                              ; Programmer            : 
     5                              ; Description           : RF三通道状态管理骨架
     6                              ; History version       : 
     7                              ;==================================================================================
     8                              ;==========================================
     9                              ; Compiler parameter define
    10                              ;==========================================
    11                              .SYNTAX 6502
    12                              .LINKLIST
    13                              .SYMBOLS
    14                              
    15                              ;==========================================
    16                              ; Include file area
    17                              ;==========================================
    18                              .INCLUDE 	GPL813x.inc
    19                      <       	.IFDEF		GPL813_SERIES
    20                      <       
    21                      <       ;---------------------------------
    22                      <       GPL813P01Cx		.EQU		1
    23                      <       ;---------------------------------
    24                      <       
    25                      <       .IFNDEF GPL813X_Body_inc
    26                      <       GPL813X_Body_inc:   .EQU    1
    27                      <       ;==================================================================================
    28                      <       ; The information contained herein is the exclusive property of
    29                      <       ; Generalplus Technology Co. And shall not be distributed, reproduced,
    30                      <       ; or disclosed in whole in part without prior written permission.
    31                      <       ;       (C) COPYRIGHT 2017   Generalplus TECHNOLOGY CO.                            
    32                      <       ;                   ALL RIGHTS RESERVED
    33                      <       ; The entire notice above must be reproduced on all authorized copies.
    34                      <       ;==================================================================================
    35                      <       ;==================================================================================
    36                      <       ; Program Name: GPL813 series register declare
    37                      <       ; Applied body: GPL813 series
    38                      <       ; Programmer  : KenLiu
    39                      <       ; Description : 
    40                      <       ;             : 
    41                      <       ; History version
    42                      <       ; Rev #       Date          Who            Comments
    43                      <       ; -------  -----------    --------         ----------------------------------------
    44                      <       ;==================================================================================
    45                      <       ;==================================================================================
    46                      <       
    47                      <       		.IFNDEF	GPL813P01Ax
    48                      <       		GPL813P01Ax: 	.EQU		0
    49                      <       		.ENDIF
    50                      <       		.IFNDEF	GPL813P01Bx
    51                      <       		GPL813P01Bx: 	.EQU		0
    52                      <       		.ENDIF
    53                      <       		.IFNDEF	GPL813P01Cx
    54                      <       		GPL813P01Cx: 	.EQU		0
    55                      <       		.ENDIF
    56                      <        	 
    57                      <       .IF (GPL813P01Ax)
    58                      <       GPL813X		.EQU		1
    59                      <       .ENDIF
    60                      <       .IF (GPL813P01Bx)
    61                      <       GPL813X		.EQU		1
    62                      <       .ENDIF
    63                      <       .IF (GPL813P01Cx)
    64                      <       GPL813X		.EQU		1
    65                      <       .ENDIF
    66                      <       			.IFDEF	GPL813X
    67 00000000             <       		.PAGE0
    68                      <             
    69                      <       ;===================  IO Register  ===================
    70                      <       P_IO_PortA_Dir:     		.EQU	$00
    71                      <       P_IO_PortA_Data:			.EQU	$02
    72                      <       		
    73                      <       P_IO_PortB_Dir:				.EQU	$10
    74                      <       P_IO_PortB_Data:			.EQU	$12	
    75                      <       P_IO_PortB_Attrib:			.EQU	$14
    76                      <       
    77                      <       P_IO_PortC_Dir:     		.EQU	$01
    78                      <       P_IO_PortC_Data:			.EQU	$05
    79                      <       P_IO_PortE_Data:     		.EQU	$03
    80                      <       P_IO_PortE_DataLatch:		.EQU	$04
    81                      <       
    82                      <       P_IO_Ctrl:    			    .EQU	$06
    83                      <       P_IO_PortE_Dir:				.EQU	$0B
    84                      <       P_IO_PortD_Attrib			.EQU	$15
    85                      <       P_IO_PortD_Dir				.EQU	$11
    86                      <       P_IO_PortD_Data				.EQU	$13
    87                      <       
    88                      <       ;==============  Sleep/Wakeup Register  ==============
    89                      <       P_WAKEUP_Ctrl:			    .EQU	$08
    90                      <        D_WakeupTimer1:				.EQU	00100000B
    91                      <        D_WakeupTimer0:				.EQU	00010000B
    92                      <        D_WakeupTMBB:					.EQU	00001000B
    93                      <        D_Wakeup128Hz:					.EQU	00000100B
    94                      <        D_WakeupTMBA:					.EQU	00000010B
    95                      <        D_WakeupKey:					.EQU	00000001B
    96                      <        
    97                      <       P_SYSTEM_Ctrl:			    .EQU	$09
    98                      <       
    99                      <       ;=================  Timer Register  ==================
   100                      <       P_TIMER_TimeBase_Sel:		.EQU	$0A
   101                      <       P_TIMER_Timer0_Ctrl:		.EQU	$22
   102                      <        D_TimerEn:						.EQU	10000000B
   103                      <        D_TimerRiseEdge:				.EQU	00000000B
   104                      <        D_TimerFallEdge:				.EQU	01000000B
   105                      <        D_TimerSrcExtA:				.EQU	00000000B
   106                      <        D_TimerSrcExtA2:				.EQU	00100000B
   107                      <        D_TimerSrcA_HF:				.EQU	00000000B
   108                      <        D_TimerSrcA_HFDIV:				.EQU	00000001B
   109                      <        D_TimerSrcA_EXT:				.EQU	00000010B
   110                      <        D_TimerSrcA_VDD:				.EQU	00000011B
   111                      <        D_TimerSrcB_LF:				.EQU	00000000B
   112                      <        D_TimerSrcB_TMX:				.EQU	00000100B
   113                      <        D_TimerSrcB_EXTA:				.EQU	00001000B
   114                      <        D_TimerSrcB_VDD:				.EQU	00001100B
   115                      <       P_TIMER_TM0Data_LB:			.EQU	$20
   116                      <       P_TIMER_TM0Data_HB:			.EQU	$21
   117                      <       P_TIMER_TM0Load_Ctrl:		.EQU	$23
   118                      <       
   119                      <       P_TIMER_TM1Data:			.EQU	$25
   120                      <       P_TIMER_Timer1_Ctrl:		.EQU	$26
   121                      <        D_Timer1En:					.EQU	10000000B
   122                      <        D_Timer1_LSCK:					.EQU	00000000B
   123                      <        D_Timer1_TMBB:					.EQU	00000001B 
   124                      <        D_Timer1_HSCK:					.EQU	00000010B 
   125                      <        D_Timer1_HFDIV:				.EQU	00000011B
   126                      <       P_TIMER_TM1Load_Ctrl:		.EQU	$27
   127                      <       
   128                      <       ;==============  CPU & Clock Register  ===============
   129                      <       P_CLK_CPU_Ctrl:				.EQU	$18
   130                      <        D_RCHF_Msk:					.EQU	11100000B
   131                      <        D_RCHF225K:					.EQU	00000000B;225k
   132                      <        D_RCHF500K:					.EQU	01000000B;500k
   133                      <        D_RCHF1800K:					.EQU	10000000B;1800k
   134                      <        D_RCHF1000K:					.EQU	11000000B;1000k
   135                      <        D_RCHF4000K:					.EQU	00100000B;4000k
   136                      <        
   137                      <        D_CPU_Msk:						.EQU	00000111B
   138                      <        D_CPU_HF:						.EQU	00000000B;HF
   139                      <        D_CPU_HF2:						.EQU	00000001B;HF/2
   140                      <        D_CPU_HF4:						.EQU	00000010B;HF/4
   141                      <        D_CPU_HF8:						.EQU	00000011B;HF/8
   142                      <        D_CPU_HF16:					.EQU	00000100B;HF/16
   143                      <       P_CLK_HFDIV_Ctrl:			.EQU	$1A
   144                      <       P_CLK_32768_En:				.EQU	$0C
   145                      <        D_LFEnable:					.EQU	00000000B 
   146                      <        D_LFDisable:					.EQU	10000000B
   147                      <        D_X32K_WEAK:					.EQU	00000100B
   148                      <        D_X32K_STRO:					.EQU	00000010B
   149                      <        D_CAP_EN:						.EQU	00000001B ;With internal CAP
   150                      <        D_CAP_DIS:						.EQU	00000000B ;With external CAP
   151                      <       ; D_256TMX_En:                   .EQU	00100000B
   152                      <       
   153                      <       ;=================  INT/NMI Register  ================
   154                      <       P_INT_Ctrl:					.EQU	$0D
   155                      <        D_IntMask:						.EQU	11111111B
   156                      <        D_Ext2Int:						.EQU	10000000B
   157                      <        D_LvdInt:						.EQU	01000000B
   158                      <        D_Timer0Int:					.EQU	00100000B
   159                      <        D_TMBBInt:						.EQU	00010000B
   160                      <        D_TMBAInt:						.EQU	00001000B
   161                      <        D_128HzInt:					.EQU	00000100B
   162                      <        D_2KHzInt:						.EQU	00000010B
   163                      <        D_ExtInt:						.EQU	00000001B
   164                      <        
   165                      <       P_INT_2KHz_Clear:			.EQU	$41
   166                      <       P_INT_128Hz_Clear:			.EQU	$42
   167                      <       P_INT_TimeBaseA_Clear:		.EQU	$43
   168                      <       P_INT_TimeBaseB_Clear:		.EQU	$44
   169                      <       
   170                      <       P_INT_Timer0_Clear:			.EQU	$45
   171                      <       P_INT_Ext_Clear:			.EQU	$40
   172                      <       
   173                      <       P_INT_Ctrl2:				.EQU	$2D
   174                      <        D_Int2Mask:             		.EQU	00000011B
   175                      <        D_Timer1Int:    				.EQU	00000001B
   176                      <       P_INT_Ext2_Clear:			.EQU	$47			
   177                      <       P_INT_Timer1_Clear:			.EQU	$48
   178                      <       
   179                      <       ;===================  LCD Register  ==================
   180                      <       P_LCD_Ctrl:					.EQU	$07
   181                      <        D_LcdConfigMask:       		.EQU	11111101B
   182                      <        D_Duty_1_8:					.EQU	10001000B
   183                      <        D_Duty_1_6:					.EQU	11001000B
   184                      <        D_Duty_1_5:					.EQU	00000100B
   185                      <        D_Duty_1_4:   					.EQU	01000100B
   186                      <        D_Duty_1_3:					.EQU	10000100B
   187                      <        
   188                      <        D_Bias_1_4:					.EQU	00000000B
   189                      <        D_Bias_1_3:					.EQU	00100000B
   190                      <        D_Bias_1_2:					.EQU	00010000B
   191                      <        D_ScanEnable:					.EQU	00000001B
   192                      <       P_LCD_VLCD_Ctrl:			.EQU	$19
   193                      <        D_Halt_Normal:					.EQU	00110000B
   194                      <        D_Halt_Green:					.EQU	00100000B
   195                      <        D_VLCD_28:						.EQU	00000000B
   196                      <        D_VLCD_30:						.EQU	00000001B
   197                      <        D_VLCD_33:						.EQU	00000010B
   198                      <        D_VLCD_VDD:					.EQU	00000011B
   199                      <       ;===============   Watch Dog Register  ===============
   200                      <       P_WDT_Flag_Clear:			.EQU	$0F
   201                      <       
   202                      <       ;==================  Reset Register  ==================
   203                      <       P_Reset_Status:			.EQU	$0E
   204                      <        D_FlagC:						.EQU	00000001B;Reset in normal mode
   205                      <        D_FlagON:						.EQU	00000010B;Reset in standby mode
   206                      <        
   207                      <       ;==================  AUDIO Register  =================
   208                      <       ; Buzzer Output Control (PD[1:0] is buzzer output)
   209                      <       P_AUDIO_BZ_Ctrl:			.EQU	$16
   210                      <        D_C32KOUT:						.EQU	10000000B
   211                      <        D_Buzzer1:						.EQU	00000010B
   212                      <        D_Buzzer0:						.EQU	00000001B
   213                      <       
   214                      <       ;==================  LVD Register  ===================
   215                      <       P_LVD_Ctrl:					.EQU	$1B
   216                      <        D_LVD_State:					.EQU	00000001B
   217                      <        D_LVD_22:						.EQU	00000000B
   218                      <        D_LVD_24:						.EQU	01000000B
   219                      <        D_LVD_27:						.EQU	10000001B
   220                      <        D_LVD_33:						.EQU	11000001B
   221                      <       P_INT_LVD_Clear:			.EQU	$46
   222                      <       
   223                      <       ;================  RFC Control Register  ==============
   224                      <       P_RFC_Ctrl:					.EQU	$17
   225                      <        D_EXT1EDG:						.EQU	10000000B
   226                      <        D_EXT2EDG:						.EQU	01000000B
   227                      <        D_RFCEN:						.EQU	00000001B
   228                      <       ;=================  PWM Register  =====================
   229                      <       P_PWMIO_Ctrl:				.EQU	$3030
   230                      <       P_PWMIO_IO0_DUTY:			.EQU	$3032
   231                      <       P_PWMIO_IO1_DUTY:			.EQU	$3033
   232                      <       P_PWMIO_IO2_DUTY:			.EQU	$3034
   233                      <       P_PWMIO_IO3_DUTY:			.EQU	$3035
   234                      <       
   235                      <       ;**********************************************************************
   236                      <       ;ROM Checksum
   237                      <       ;**********************************************************************
   238                      <       ;.IF (GPL813P01Ax+GPL813P01Bx+GPL813P01Cx)
   239                      <       ;	D_BankNum:						.EQU	1	
   240                      <       ;.ENDIF
   241                      <       
   242                      <       	D_Bank0UserRomStartAddr:		.EQU	0xE000		;0x4800 ~ 0x7FDF:User ROM Code
   243                      <       	D_Bank0UserRomEndAddr:			.EQU	0xFFDF
   244                      <       	D_NMIandResetVectorStartAddr:	.EQU	0xFFFC		;0xFFF8 ~ 0xFFF9:User ROM Code, 0xFFFA ~ 0xFFFF:NMI & Reset & IRQ vector
   245                      <       	D_NMIandResetVectorEndAddr:		.EQU	0xFFFF
   246                      <       
   247                      <       ; ========================================================================================
   248                      <       ; Macro Name	: M_UserRomChecksum
   249                      <       ; Parameters	: None
   250                      <       ; Return Value	: R_ChecksumResult: bit[7:0]
   251                      <       ;				: R_ChecksumResult + 1: bit[15:8]
   252                      <       ;				: R_ChecksumResult + 2: bit[23:16]
   253                      <       ;				: R_ChecksumResult + 3: bit[31:24]
   254                      <       ; Description	: Calculate user ROM area code checksum
   255                      <       ; Destroy		: A, Y
   256                      <       ; Example		: %M_UserRomChecksum	R_ChecksumAddrPtr, R_ChecksumResult
   257                      <       ; ========================================================================================	
   258                      <       %M_UserRomChecksum:	.MACRO	R_ChecksumAddrPtr, R_ChecksumResult
   259                      <       	
   260                      <       	LDA		#0
   261                      <       	STA		R_ChecksumResult						;Result Byte0
   262                      <       	STA		R_ChecksumResult + 1				;Result Byte1
   263                      <       	STA		R_ChecksumResult + 2				;Result Byte2
   264                      <       	STA		R_ChecksumResult + 3				;Result Byte3
   265                      <       ;=================== Bank 0 ==================================================	
   266                      <       	LDA		#.HIGH.D_Bank0UserRomStartAddr
   267                      <       	STA		R_ChecksumAddrPtr + 1				;Start High Byte
   268                      <       	LDA		#.LOW.D_Bank0UserRomStartAddr
   269                      <       	STA		R_ChecksumAddrPtr						;Start Low Byte
   270                      <       		
   271                      <       	LDY		#0	
   272                      <       
   273                      <       L_ChecksumLoop1?
   274                      <       	STA		P_WDT_Flag_Clear	
   275                      <       	CLC
   276                      <       	LDA		(R_ChecksumAddrPtr),Y
   277                      <       	ADC		R_ChecksumResult						;Result Low Byte
   278                      <       	STA		R_ChecksumResult						;Result Low Byte
   279                      <       	BCC		L_CheckAddress1?
   280                      <       	INC		R_ChecksumResult + 1				;Result Byte1
   281                      <       	BNE		L_CheckAddress1?
   282                      <       	INC		R_ChecksumResult + 2				;Result Byte3
   283                      <       	BNE		L_CheckAddress1?
   284                      <       	INC		R_ChecksumResult + 3				;Result Byte4
   285                      <       		
   286                      <       L_CheckAddress1?:
   287                      <       	LDA		R_ChecksumAddrPtr + 1				;Address Pointer HB
   288                      <       	CMP		#.HIGH.D_Bank0UserRomEndAddr		;End High Byte
   289                      <       	BNE		L_IncreaseAdd1?
   290                      <       	
   291                      <       	LDA		R_ChecksumAddrPtr						;Address Pointer LB
   292                      <       	CMP		#.LOW.D_Bank0UserRomEndAddr			;End Low Byte
   293                      <       	BEQ		L_ExitRomSum1?
   294                      <       	
   295                      <       L_IncreaseAdd1?:
   296                      <       	INC		R_ChecksumAddrPtr						;Address Pointer LB
   297                      <       	BNE		L_ChecksumLoop1?
   298                      <       	INC		R_ChecksumAddrPtr + 1				;Address Pointer HB
   299                      <       	JMP		L_ChecksumLoop1?	
   300                      <       		
   301                      <       L_ExitRomSum1?:	
   302                      <       
   303                      <       ;===================NMI & Reset Vector==================================================		
   304                      <       	LDA		#.HIGH.D_NMIandResetVectorStartAddr
   305                      <       	STA		R_ChecksumAddrPtr + 1				; Start High Byte
   306                      <       	LDA		#.LOW.D_NMIandResetVectorStartAddr
   307                      <       	STA		R_ChecksumAddrPtr						;Start Low Byte
   308                      <       		
   309                      <       L_ChecksumLoop2?
   310                      <       	STA		P_WDT_Flag_Clear		
   311                      <       	CLC
   312                      <       	LDA		(R_ChecksumAddrPtr),Y
   313                      <       	ADC		R_ChecksumResult						;Result Low Byte
   314                      <       	STA		R_ChecksumResult						;Result Low Byte
   315                      <       	BCC		L_CheckAddress2?
   316                      <       	INC		R_ChecksumResult + 1				;Result Byte2
   317                      <       	BNE		L_CheckAddress2?
   318                      <       	INC		R_ChecksumResult + 2				;Result Byte3
   319                      <       	BNE		L_CheckAddress2?
   320                      <       	INC		R_ChecksumResult + 3				;Result Byte4
   321                      <       		
   322                      <       L_CheckAddress2?:
   323                      <       	LDA		R_ChecksumAddrPtr + 1				;Address Pointer HB
   324                      <       	CMP		#.HIGH.D_NMIandResetVectorEndAddr	;End High Byte
   325                      <       	BNE		L_IncreaseAdd2?
   326                      <       	
   327                      <       	LDA		R_ChecksumAddrPtr						;Address Pointer LB
   328                      <       	CMP		#.LOW.D_NMIandResetVectorEndAddr	;End Low Byte
   329                      <       	BEQ		L_ExitRomSum2?
   330                      <       	
   331                      <       L_IncreaseAdd2?:
   332                      <       	INC		R_ChecksumAddrPtr						;Address Pointer LB
   333                      <       	BNE		L_ChecksumLoop2?
   334                      <       	INC		R_ChecksumAddrPtr + 1				;Address Pointer HB
   335                      <       	JMP		L_ChecksumLoop2?	
   336                      <       		
   337                      <       L_ExitRomSum2?:	
   338                      <       ;;=====================Bank area================================================		
   339                      <       	
   340                      <       	.ENDM
   341                      <       ;================================================================================
   342                      <       
   343                      <       			.ENDIF
   344                      <       .ENDIF
   345                      <       	.ENDIF
   346                      <       	
   347                              .INCLUDE 	SYS\Macro.inc
   348                      <       
   349                      <       ;==========================================
   350                      <       ; Constant define area
   351                      <       C_SramAddrStart		    .EQU		0080H	;SRAM start address
   352                      <       C_SramAddrEnd   		.EQU		00FFH	;SRAM end address
   353                      <       C_DPRAMAddrStart		.EQU		3E00H	;DPRAM start address
   354                      <       C_DPRAMAddrEnd   		.EQU		3FFFH	;DPRAM end address
   355                      <       
   356                      <       D_Bit0					equ		01H
   357                      <       D_Bit1					equ		02H
   358                      <       D_Bit2					equ		04H
   359                      <       D_Bit3					equ		08H
   360                      <       D_Bit4					equ		10H
   361                      <       D_Bit5					equ		20H
   362                      <       D_Bit6					equ		40H
   363                      <       D_Bit7					equ		80H
   364                      <       
   365                      <       C_High		equ	0x01
   366                      <       C_Input		equ	0x00
   367                      <       
   368                      <       ;PCDir for 1  is output, for 0 is input
   369                      <       C_PC0Dir	equ	D_Bit0
   370                      <       C_PC1Dir	equ	D_Bit1
   371                      <       C_PC2Dir	equ	D_Bit2
   372                      <       C_PC3Dir	equ	D_Bit3
   373                      <       C_PC6Dir	equ	D_Bit6
   374                      <       C_PC7Dir	equ	D_Bit7
   375                      <       
   376                      <       D_BLight	equ	D_Bit2
   377                      <       D_Pulse		equ	D_Bit3
   378                      <       D_LVD		equ	D_Bit5
   379                      <       
   380                      <       
   381                      <       C_MusicOne	equ	21
   382                      <       C_MusicAll	equ	22
   383                      <       C_MusicStop	equ	23
   384                      <       C_MinVol	equ	31
   385                      <       C_MaxVol	equ	45
   386                      <       
   387                      <       ;;============================================================================
   388                      <       ;Macro Name: %M_ClearWatchDog
   389                      <       ;Purpose: Clear Watchdog
   390                      <       ;Destroy: A
   391                      <       ;;============================================================================
   392                      <       %M_ClearWatchDog:		.MACRO 
   393                      <       	LDA		#D_WDT_Clear
   394                      <       	STA		P_WDT_Flag_Clear			; Clear WDT
   395                      <       	.ENDM
   396                      <       ;;============================================================================
   397                      <       ;Macro Name: %M_DisAllInt
   398                      <       ;Purpose: Disable all interrupt 
   399                      <       ;Destroy: A
   400                      <       ;;============================================================================
   401                      <       %F_InitINT:		.MACRO
   402                      <       		LDA		#00000111b		;2HZ （bit0~2) for 111 is 4K 			;timeBaseA 2hz timeBaseB 16hz
   403                      <       		STA		P_TIMER_TimeBase_Sel		
   404                      <       		LDA		#D_2KHzInt+D_128HzInt+D_TMBAInt+D_TMBBInt;+D_Timer0Int
   405                      <       		STA		P_INT_Ctrl
   406                      <       		LDA		#00
   407                      <       		STA		P_INT_Ctrl2		;disable TMR1 INT
   408                      <       ;		LDA		#D_TimerEn+D_TimerFallEdge+D_TimerSrcA_VDD+D_TimerSrcB_LF
   409                      <       ;		STA		P_TIMER_Timer0_Ctrl
   410                      <       ;		LDA		#0xC8
   411                      <       ;		LDA		#0xFC
   412                      <       ;		STA		P_TIMER_TM0Data_LB		;8k
   413                      <       ;		LDA		#0xFF
   414                      <       ;		STA		P_TIMER_TM0Data_HB
   415                      <       	.ENDM
   416                      <       ;;============================================================================
   417                      <       ;Macro Name: %DisableLCD
   418                      <       ;Purpose: Disable LCD
   419                      <       ;Destroy: A
   420                      <       ;;============================================================================
   421                      <       %DisableLCD:		.MACRO
   422                      <       	
   423                      <       		LDA		#(D_Duty_1_5+D_Bias_1_4)	;+D_ScanEnable)
   424                      <       		STA		P_LCD_Ctrl		;1/11duty,1/4bias,normal scan
   425                      <       		
   426                      <       		LDA     #D_VLCD_33         ;VLCD = 4.5V (max value)
   427                      <       		STA     P_LCD_VLCD_Ctrl
   428                      <       	.ENDM
   429                      <       ;-----------------------------------------------------------------------------
   430                      <       ; Macro Name:	%M_InitLCD
   431                      <       ; Description:	Initialize LCD configuration after power on
   432                      <       ;-----------------------------------------------------------------------------	
   433                      <       ;%M_InitLCD:		.MACRO
   434                      <       ;    LDA		#D_LCDMode_Normal+D_LCDSetting_3Bias_4Duty+D_LCDGreenMode_En
   435                      <       ;;	LDA		#(D_LCDMode_Normal+D_LCDSetting_3Bias_4Duty)
   436                      <       ;	STA		P_LCD_Ctrl		;1/4duty,1/3bias,normal scan
   437                      <       ;
   438                      <       ;	.ENDM
   439                      <       ;-----------------------------------------------------------------------------
   440                      <       ; Macro Name:	%FillLcdDpram
   441                      <       ; Description:	Fill LCD DPRAM $50 ~$5F
   442                      <       ;-----------------------------------------------------------------------------
   443                      <       ;%FillLcdDpram	.MACRO	mData
   444                      <       ;		
   445                      <       ;		%M_ClearWatchDog
   446                      <       ;		LDX		#00H
   447                      <       ;		LDA     mData
   448                      <       ;?L_ClrDpramLoop:
   449                      <       ;		STA		$50,X
   450                      <       ;		INX
   451                      <       ;		CPX		#10H
   452                      <       ;		BNE		?L_ClrDpramLoop	
   453                      <       ;
   454                      <       ;	.ENDM
   455                      <       
   456                      <       ;;==========================================================================
   457                      <       ;;Macro Name: %M_SetPC7_InputPL                 Attrib     Dir    Data
   458                      <       ;;Purpose: Set PortC7 iutput pull low            0          0      1
   459                      <       ;;Destroy: A
   460                      <       ;;==========================================================================
   461                      <       ;%M_SetPC7_InputPL:	.MACRO
   462                      <       ;	    LDA		P_IO_PortC_Attrib
   463                      <       ;		AND     #7FH
   464                      <       ;		STA		P_IO_PortC_Attrib
   465                      <       ;		
   466                      <       ;		LDA		P_IO_PortC_Dir
   467                      <       ;		AND     #7FH
   468                      <       ;		STA		P_IO_PortC_Dir
   469                      <       ;		
   470                      <       ;		LDA		P_IO_PortC_Buffer
   471                      <       ;		ORA		#10000000B
   472                      <       ;		STA		P_IO_PortC_Data
   473                      <       ;
   474                      <       ;			.ENDM
   475                      <       ;;==========================================================================
   476                      <       ;;Macro Name: %M_SetPC7_InputPH               Attrib     Dir    Data
   477                      <       ;;Purpose: Set PortC7 iutput pull high         1          0      1
   478                      <       ;;Destroy: A
   479                      <       ;;==========================================================================
   480                      <       ;%M_SetPC7_InputPH:	.MACRO
   481                      <       ;	    LDA		P_IO_PortC_Attrib
   482                      <       ;		ORA     #80H
   483                      <       ;		STA		P_IO_PortC_Attrib
   484                      <       ;		
   485                      <       ;		LDA		P_IO_PortC_Dir
   486                      <       ;		AND     #7FH
   487                      <       ;		STA		P_IO_PortC_Dir
   488                      <       ;		
   489                      <       ;		LDA		P_IO_PortC_Buffer
   490                      <       ;		ORA		#10000000B
   491                      <       ;		STA		P_IO_PortC_Data
   492                      <       ;
   493                      <       ;			.ENDM
   494                      <       ;;==========================================================================
   495                      <       ;;Macro Name: %M_SetPC7_Output               Attrib     Dir    Data
   496                      <       ;;Purpose: Set PortC7 driving  low            0          1      0
   497                      <       ;;Destroy: A
   498                      <       ;;==========================================================================
   499                      <       ;%M_SetPC7_OutputL:	.MACRO
   500                      <       ;        LDA		P_IO_PortC_Attrib
   501                      <       ;		AND     #7FH
   502                      <       ;		STA		P_IO_PortC_Attrib
   503                      <       ;		
   504                      <       ;		LDA		P_IO_PortC_Dir
   505                      <       ;		ORA     #80H
   506                      <       ;		STA		P_IO_PortC_Dir
   507                      <       ;		
   508                      <       ;		LDA		P_IO_PortC_Buffer
   509                      <       ;		AND		#01111111b
   510                      <       ;		STA		P_IO_PortC_Data
   511                      <       ;			.ENDM
   512                      <       ;;==========================================================================
   513                      <       ;;Macro Name: %M_SetPC7_Output             Attrib     Dir    Data
   514                      <       ;;Purpose: Set PortC7 driving  high          0         1      1
   515                      <       ;;Destroy: A
   516                      <       ;;==========================================================================
   517                      <       ;%M_SetPC7_OutputH:	.MACRO
   518                      <       ;        LDA		P_IO_PortC_Attrib
   519                      <       ;		AND     #7FH
   520                      <       ;		STA		P_IO_PortC_Attrib
   521                      <       ;		
   522                      <       ;		LDA		P_IO_PortC_Dir
   523                      <       ;		ORA     #80H
   524                      <       ;		STA		P_IO_PortC_Dir
   525                      <       ;		
   526                      <       ;		LDA		P_IO_PortC_Buffer
   527                      <       ;		ORA		#10000000B
   528                      <       ;		STA		P_IO_PortC_Data
   529                      <       ;		
   530                      <       ;			.ENDM
   531                      <       ;----------------------------------------------------------
   532                      <       ;/***********************************************/
   533                      <       ;         i.L=1 
   534                      <       %bits:   .MACRO   i,L             ;BYTE i;  
   535                      <                 lda     i               ;ex.  
   536                      <                 ora     #L              ;  %bits 10H,_BIT0
   537                      <       		                   ;  10H.0=1
   538                      <                 sta     i               ;
   539                      <                .ENDM    
   540                      <       
   541                      <       ;/***********************************************/
   542                      <       ;         i.L=0
   543                      <       %bitr:   .MACRO   i,L             ;BYTE i;  
   544                      <                 lda     i               ;ex.  
   545                      <                 and     #.NOT.L         ;  %bitr 10H,_BIT0;  10H.0=0
   546                      <                 sta     i
   547                      <                .ENDM    
   548                      <       
   549                      <       ;/***********************************************/
   550                      <       ;         if(i.L==1) goto N
   551                      <       %btst:   .MACRO   i,L,N           ;BYTE i;  
   552                      <                 lda     i               ;ex.   
   553                      <                 and     #L              ;  %btst 10H,_BIT0,N
   554                      <                 bne     N               ;  if(10H.0=1) goto N 
   555                      <                .ENDM    
   556                      <                                         
   557                      <       ;/***********************************************/
   558                      <       ;         if(i.L==0) goto N
   559                      <       %btsf:   .MACRO   i,L,N           ;BYTE i;    
   560                      <                 lda     i               ;ex.   
   561                      <                 and     #L              ;  %btsf 10H,_BIT0,N
   562                      <                 beq     N               ;  if(10H.0=0) goto N 
   563                      <                .ENDM    
   564                      <       ;/***********************************************/
   565                      <       ;         if(i==#0) goto N
   566                      <       %jz:     .MACRO   i,N             ;BYTE i;
   567                      <                 lda     i               ;ex.
   568                      <                 beq     N               ;  %jz 10H,N
   569                      <                .ENDM                    ;  if(10H==#0) goto N
   570                      <       
   571                      <       ;/***********************************************/
   572                      <       ;         if(i!=#0) goto N
   573                      <       %jnz:    .MACRO   i,N             ;BYTE i;
   574                      <                 lda     i               ;ex.
   575                      <                 bne     N               ;  %jnz 10H,N
   576                      <                .ENDM                    ;  if($10!=#0) goto N
   577                      <                   
   578                      <       ;-----------------------------------------------------------------------------
   579                      <       ; Macro Name:	%InitSystem
   580                      <       ; Description:	Initial system port
   581                      <       ;-----------------------------------------------------------------------------
   582                      <       %InitSystem		.MACRO
   583                      <       		LDA		#0
   584                      <       		STA		P_Reset_Status	;Clear AC key reset flag
   585                      <       		%Enable32KLF
   586                      <       	.ENDM
   587                      <       ;-----------------------------------------------------------------------------
   588                      <       ; Macro Name:	%Disable32KLF
   589                      <       ; Description:	Disable Low Frequency
   590                      <       ;-----------------------------------------------------------------------------
   591                      <       %Disable32KLF	.MACRO
   592                      <       
   593                      <       		LDA		#D_LFDisable
   594                      <       		STA		P_CLK_32768_En
   595                      <       
   596                      <       		.ENDM
   597                      <       ;-----------------------------------------------------------------------------
   598                      <       ; Macro Name:	%Enable32KLF
   599                      <       ; Description:	Enable Low Frequency
   600                      <       ;-----------------------------------------------------------------------------
   601                      <       %Enable32KLF		.MACRO
   602                      <       
   603                      <       		LDA		#D_LFEnable
   604                      <       		STA		P_CLK_32768_En
   605                      <       
   606                      <       	.ENDM		
   607                      <       ;-----------------------------------------------------------------------------
   608                      <       ; Macro Name:	%InitLCD
   609                      <       ; Description:	Initialize LCD configuration after power on
   610                      <       ;-----------------------------------------------------------------------------	
   611                      <       %InitLCD:		.MACRO
   612                      <       
   613                      <       		LDA		#(D_Duty_1_5+D_Bias_1_3+D_ScanEnable)
   614                      <       		STA		P_LCD_Ctrl		;1/11duty,1/4bias,normal scan
   615                      <       		
   616                      <       		LDA     #D_VLCD_28            ;VLCD = 4.5V (max value)
   617                      <       ;		LDA		#D_VLCD_VDD
   618                      <       		STA     P_LCD_VLCD_Ctrl
   619                      <       	
   620                      <       	.ENDM
   621                      <       ;-----------------------------------------------------------------------------
   622                      <       ; Macro Name:	%FillSram
   623                      <       ; Description:	Fill data to SRAM whole space
   624                      <       ; Input:		mData
   625                      <       ;-----------------------------------------------------------------------------	
   626                      <       %FillSram		.MACRO	mData
   627                      <       		
   628                      <       		LDA		#.LOW.(C_SramAddrStart+2)
   629                      <       		STA		C_SramAddrStart
   630                      <       		LDA		#.HIGH.(C_SramAddrStart+2)
   631                      <       		STA		C_SramAddrStart+1
   632                      <       		
   633                      <       		LDX     #0
   634                      <       ?L_FillLoop#:
   635                      <               LDA     mData
   636                      <       		STA     (C_SramAddrStart,X)
   637                      <       		
   638                      <       		LDA     C_SramAddrStart+1
   639                      <       		CMP     #.HIGH.C_SramAddrEnd
   640                      <       		BCC     ?L_IncSramAddr#
   641                      <       		LDA     C_SramAddrStart
   642                      <       		CMP     #.LOW.C_SramAddrEnd
   643                      <       		BCS     ?L_End#
   644                      <       		
   645                      <       ?L_IncSramAddr#:    ;Increase sram address
   646                      <               INC     C_SramAddrStart
   647                      <       		BNE     ?L_FillLoop#
   648                      <       		INC     C_SramAddrStart+1
   649                      <       		%WatchDogClear
   650                      <               JMP     ?L_FillLoop#
   651                      <       ?L_End#:
   652                      <               
   653                      <               LDA     mData
   654                      <               STA     C_SramAddrStart
   655                      <               STA     C_SramAddrStart+1
   656                      <               
   657                      <               LDX		#00H
   658                      <       ?L_HSRAMloop:
   659                      <       		LDA		mData
   660                      <       		STA		$180,X
   661                      <       		INX	
   662                      <       		CPX		#80H
   663                      <       		BNE		?L_HSRAMloop
   664                      <       		
   665                      <       	.ENDM
   666                      <       	
   667                      <       ;-----------------------------------------------------------------------------
   668                      <       ; Macro Name:	%ClrSRAM
   669                      <       ; Description:	Clear SRAM $60 ~ $95F
   670                      <       ;-----------------------------------------------------------------------------	
   671                      <       %ClrSRAM:	.MACRO
   672                      <       
   673                      <       		%FillSram	#0
   674                      <       
   675                      <       	.ENDM
   676                      <       ;-----------------------------------------------------------------------------
   677                      <       ;-----------------------------------------------------------------------------
   678                      <       ; Macro Name:	%FillLcdDpram
   679                      <       ; Description:	Fill LCD DPRAM $3E00 ~$3FFF
   680                      <       ;-----------------------------------------------------------------------------
   681                      <       %FillLcdDpram	.MACRO	mData
   682                      <       		
   683                      <       		%WatchDogClear
   684                      <       		LDX		#00H
   685                      <       		LDY		#00H
   686                      <       ?L_ClrDpramLoop:
   687                      <       		LDA     mData
   688                      <       		STA		$3E00,X
   689                      <       		INY
   690                      <       		CPY		#04H
   691                      <       		BNE		?L_ClrDpramLoopI
   692                      <       		LDY		#00H
   693                      <       		TXA
   694                      <       		CLC
   695                      <       		ADC		#0CH
   696                      <       		TAX
   697                      <       ?L_ClrDpramLoopI:		
   698                      <       		INX
   699                      <       		CPX		#80H
   700                      <       		BNE		?L_ClrDpramLoop
   701                      <       	.ENDM
   702                      <       ;-----------------------------------------------------------------------------
   703                      <       %F_Initinal_IO	.MACRO
   704                      <       		LDA		#00000000b		
   705                      <       		STA		P_IO_PortA_Dir
   706                      <       		LDA		#00000000b		
   707                      <       		STA		P_IO_PortA_Data	
   708                      <       		
   709                      <       		LDA		#0
   710                      <       		STA		P_IO_PortB_Attrib
   711                      <       		LDA		#00000011b		
   712                      <       		STA		P_IO_PortB_Dir
   713                      <       		LDA		#00000000b		
   714                      <       		STA		P_IO_PortB_Data		;PB1蜂鸣器，PB0背光
   715                      <       
   716                      <       		LDA		#00H
   717                      <       		STA		P_IO_PortC_Dir
   718                      <       		LDA		#00000000b
   719                      <       		STA		P_IO_PortC_Data	
   720                      <       		
   721                      <       		LDA		#00h
   722                      <       		STA		P_IO_PortD_Attrib		
   723                      <       		LDA		#00000001b		
   724                      <       		STA		P_IO_PortD_Dir
   725                      <       		STA		P_IOD_DIR_Map	
   726                      <       		LDA		#00000010b
   727                      <       		STA		P_IO_PortD_Data		
   728                      <       		STA		R_PortD_Data_Buf
   729                      <       
   730                      <       		LDA		#00000000b			;PE0/PE1/PE2 全部作为按键输入
   731                      <       		STA		P_IO_PortE_Dir
   732                      <       		LDA		#00000000b			
   733                      <       		STA		P_IO_PortE_Data		
   734                      <       		
   735                      <       		LDA		#00
   736                      <       		STA		P_IO_Ctrl			;all as normal IO
   737                      <       		.ENDM
   738                      <       ;-----------------------------------------------------------------------------
   739                      <       ; Clear watch dog
   740                      <       %WatchDogClear	 .MACRO
   741                      <       
   742                      <       	   STA	   P_WDT_Flag_Clear
   743                      <       
   744                      <       	   .ENDM
   745                      <       ;-----------------------------------------------------------------------------
   746                      <       ; Macro Name:	%ClrPage0_60H_6FH
   747                      <       ; Description:	Clear SRAM $60 ~ $7F
   748                      <       ;-----------------------------------------------------------------------------	
   749                      <       %ClrPage0_60H_6FH:	.MACRO
   750                      <       
   751                      <       		LDX		#0FH
   752                      <       		LDA		#0
   753                      <       		
   754                      <       ?L_ClrLoop#:
   755                      <       		STA		$60,X
   756                      <       		DEX
   757                      <       		BPL		?L_ClrLoop#	
   758                      <       
   759                      <       	.ENDM
   760                      <       
   761                      <       ;
   762                      <       ;%EnableRR:		.MACRO	
   763                      <       ;;RT=>PD4	RR=>PD3	
   764                      <       ;		LDA		#D_Bit4+D_Bit5
   765                      <       ;        STA		RFC_IO_Attrib
   766                      <       ;		LDA		RB_IOD_Dir_temp
   767                      <       ;		AND		#11000011b
   768                      <       ;        ORA     #D_Bit5+D_Bit4+D_Bit3
   769                      <       ;		STA		RFC_IO_Dir
   770                      <       ;		LDA		RFC_IO_Data
   771                      <       ;		ORA     #D_Bit2
   772                      <       ;		STA     RFC_IO_Data
   773                      <       ;		
   774                      <       ;	.ENDM
   775                      <       ;;------------------------
   776                      <       ;%EnableRT:		.MACRO
   777                      <       ;	
   778                      <       ;		LDA		#D_Bit5+D_Bit3
   779                      <       ;        STA		RFC_IO_Attrib
   780                      <       ;		LDA		RB_IOD_Dir_temp
   781                      <       ;		AND		#11000011b
   782                      <       ;        ORA     #D_Bit5+D_Bit4+D_Bit3
   783                      <       ;		STA		RFC_IO_Dir
   784                      <       ;		LDA		RFC_IO_Data
   785                      <       ;		ORA     #D_Bit2
   786                      <       ;		STA     RFC_IO_Data
   787                      <       ;		
   788                      <       ;	.ENDM
   789                      <       ;;===================================================
   790                      <       ;;%EnableRR:		.MACRO	
   791                      <       ;;;RT=>PD4	RR=>PD3	
   792                      <       ;;;		LDA		RB_IOD_Dir_temp
   793                      <       ;;;		LDA		#D_Bit3+D_Bit4
   794                      <       ;;		LDA		#D_Bit4
   795                      <       ;;        STA		RFC_IO_Attrib
   796                      <       ;;		LDA		RB_IOD_Dir_temp
   797                      <       ;;		AND		#11100001b
   798                      <       ;;;        ORA     #D_Bit5+D_Bit4+D_Bit3
   799                      <       ;;		ORA		#D_Bit4+D_Bit3
   800                      <       ;;		STA		RFC_IO_Dir
   801                      <       ;;		STA		RB_IOD_Dir_temp
   802                      <       ;;		LDA		RFC_IO_Data
   803                      <       ;;		AND		#11100011b
   804                      <       ;;		ORA     #D_Bit2
   805                      <       ;;		STA     RFC_IO_Data
   806                      <       ;;		
   807                      <       ;;	.ENDM
   808                      <       ;;;------------------------
   809                      <       ;;%EnableRT:		.MACRO
   810                      <       ;;	
   811                      <       ;;		LDA		#D_Bit3
   812                      <       ;;;		LDA		#D_Bit4+D_Bit5
   813                      <       ;;        STA		RFC_IO_Attrib
   814                      <       ;;		LDA		RB_IOD_Dir_temp
   815                      <       ;;		AND		#11100001b
   816                      <       ;;        ORA     #D_Bit4+D_Bit3;+D_Bit5
   817                      <       ;;		STA		RFC_IO_Dir
   818                      <       ;;		STA		RB_IOD_Dir_temp
   819                      <       ;;		LDA		RFC_IO_Data
   820                      <       ;;		AND		#11100011b
   821                      <       ;;		ORA     #D_Bit2
   822                      <       ;;		STA     RFC_IO_Data
   823                      <       ;;		
   824                      <       ;;	.ENDM
   825                      <       ;;------------------------
   826                      <       ;%EnableRH:		.MACRO
   827                      <       ;		LDA		#D_Bit3;+D_Bit5
   828                      <       ;        STA		RFC_IO_Attrib
   829                      <       ;        LDA		RB_IOD_Dir_temp
   830                      <       ;        AND		#11100001b
   831                      <       ;        ORA     #D_Bit4+D_Bit3;+D_Bit5
   832                      <       ;		STA		RFC_IO_Dir
   833                      <       ;		STA		RB_IOD_Dir_temp
   834                      <       ;		LDA		RFC_IO_Data
   835                      <       ;		AND		#11100011b
   836                      <       ;		ORA     #D_Bit2
   837                      <       ;		STA     RFC_IO_Data
   838                      <       ;	.ENDM	
   839                      <       ;==============================================
   840                      <       %SetTimerData   .MACRO  c_data
   841                      <       
   842                      <               LDA     #.LOW.c_data
   843                      <               STA     P_TIMER_TM0Data_LB
   844                      <               LDA     #.HIGH.c_data
   845                      <               STA     P_TIMER_TM0Data_HB
   846                      <               STA     P_TIMER_TM0Load_Ctrl
   847                      <               
   848                      <       	.ENDM
   849                      <       ;-----------------------------------------------------------------------------
   850                      <       ; Macro Name:	%PushAll                                                        
   851                      <       ; Description:	Push                                                          
   852                      <       ;-----------------------------------------------------------------------------
   853                      <       %PushAll:		.MACRO                                                            
   854                      <       		PHP                                                                         
   855                      <       		PHA                                                                         
   856                      <       		TXA                                                                         
   857                      <       		PHA                                                                         
   858                      <       		TYA                                                                         
   859                      <       		PHA                                                                         
   860                      <                                                                              
   861                      <       			.ENDM                                                                   
   862                      <       ;-----------------------------------------------------------------------------
   863                      <       ; Macro Name:	%PopAll                                                         
   864                      <       ; Description:	Pop                                                           
   865                      <       ;-----------------------------------------------------------------------------
   866                      <       %PopAll:		.MACRO                                                            
   867                      <                                                           
   868                      <       		PLA                                                                         
   869                      <       		TAY                                                                         
   870                      <       		PLA                                                                         
   871                      <       		TAX                                                                         
   872                      <       		PLA                                                                         
   873                      <       		PLP                                                                         
   874                      <       			.ENDM	                                
   875                      <       		
   876                      <       ;==========================================================================
   877                      <       LCDConvert		.MACRO  com,seg
   878                      <       ;			DB	com*8+(seg/8)+00H,1<<(seg.AND.07H)
   879                      <       ;			DB	(com*8+07H)-(seg/8),1<<(seg.AND.07H)	;LB25B
   880                      <       ;			DB	com*4+(seg/8)+50H,1<<(seg.AND.07H)	;L11A\B
   881                      <       ;			DB	com*6+(seg/8)+20H,1<<(seg.AND.07H)	;L31B
   882                      <       ;LCDConvert:		.Macro	com,seg
   883                      <       ;			DB	com*4+(seg/8)+A0H,1<<(seg.AND.07H)	;GPL10A
   884                      <       			DB	com*10H+(seg/8)+00H,1<<(seg.AND.07H)	;GPL813P01;
   885                      <       			
   886                      <       			.ENDM
   887                      <       			
   888                      <       %LCD7S        .MACRO   i1c,i1s,i2c,i2s,i3c,i3s,i4c,i4s,i5c,i5s,i6c,i6s,i7c,i7s
   889                      <                      LCDConvert    i1c,i1s
   890                      <                      LCDConvert    i2c,i2s
   891                      <                      LCDConvert    i3c,i3s
   892                      <                      LCDConvert    i4c,i4s
   893                      <                      LCDConvert    i5c,i5s
   894                      <                      LCDConvert    i6c,i6s
   895                      <                      LCDConvert    i7c,i7s
   896                      <                      .ENDM
   897                      <                      
   898                      <       %LCD8S:        .MACRO   i1c,i1s,i2c,i2s,i3c,i3s,i4c,i4s,i5c,i5s,i6c,i6s,i7c,i7s,i8c,i8s
   899                      <                      LCDConvert    i1c,i1s
   900                      <                      LCDConvert    i2c,i2s
   901                      <                      LCDConvert    i3c,i3s
   902                      <                      LCDConvert    i4c,i4s
   903                      <                      LCDConvert    i5c,i5s
   904                      <                      LCDConvert    i6c,i6s
   905                      <                      LCDConvert    i7c,i7s
   906                      <       		       LCDConvert    i8c,i8s
   907                      <                      .ENDM  
   908                      <                    
   909                      <       ;**********************************************************************
   910                      <       %Define_IOPort:	.Macro
   911                      <       			lda	#(PortCD0Output+PortCD1Output+PortCD2Output+PortCD3Output)
   912                      <       			sta	P_00H_Port_Ctrl
   913                      <       			lda	#03H		;D_PortCDScan
   914                      <       			sta	P_03H_PortCD_Data
   915                      <       			.ENDM	
   916                      <       
   917                      <       ;================================================================
   918                      <       ;Kind   :Count Loop
   919                      <       ;================================================================
   920                      <       ;-------------------------------------------------------------------------
   921                      <       %DJNZ:               .MACRO       Var,Lable    ;  !=0
   922                      <                             DEC          Var
   923                      <                             BNE          Lable
   924                      <                            .ENDM
   925                              .INCLUDE 	RTC\RTC.inc
   926                      <       ;===================================================
   927                      <       ;            RAM Define
   928                      <       ;====================================================
   929                      <       .EXTERN			R_TimeStatus
   930                      <       HalfSecToggle			EQU		01000000B
   931                      <       
   932                      <       AddSecondOnly			EQU		00100000B
   933                      <       AddOthers				EQU		00010000B
   934                      <       .EXTERN			RTC
   935                      <       
   936                      <       ;===================================================
   937                      <       ;            Module Define
   938                      <       ;====================================================
   939                      <       .EXTERN			F_ResetRealTimeClock
   940                      <       .EXTERN			F_RealTimeClock
   941                      <       .EXTERN			F_ClearIncStatus
   942                      <       .EXTERN			INC_SEC
   943                      <       .EXTERN			INC_MIN
   944                      <       .EXTERN			INC_MIN1
   945                      <       .EXTERN			INC_MIN2
   946                      <       .EXTERN			INC_HR
   947                      <       .EXTERN			INC_HR1
   948                      <       .EXTERN			INC_HR2		;x for RAM, a for Max
   949                      <       
   950                      <       ;====================================================
   951                              
   952                              ;==========================================
   953                              ; Constant define area
   954                              ;==========================================
   955                              D_RFLongRecv		equ	01h
   956                              D_RFCycleMode		equ	02h
   957                              D_RFNeedSync		equ	04h
   958                              D_RFRecvBusy		equ	08h
   959                              
   960                              D_RFCh1			equ	01h
   961                              D_RFCh2			equ	02h
   962                              D_RFCh3			equ	03h
   963                              D_RFAutoMode		equ	04h
   964                              
   965                              D_RFValid		equ	01h
   966                              D_RFLowBat		equ	02h
   967                              D_RFLost			equ	04h
   968                              D_RFNeedPair		equ	08h
   969                              
   970                              C_RFLongRecv3Min		equ	180
   971                              C_RFAutoSwitch4Sec		equ	4
   972                              C_RFRecvWindow2SecTick	equ	4		; 最新协议已改回提前 2 秒开接收，窗口总长 2 秒。
   973                              ; C_RFRecvWindow3Sec		equ	6		; 旧一版规格写过 3 秒总窗口，现已不用，保留注释。
   974                              C_RFSyncAdvance2SecTick	equ	4		; 0.5 秒粒度，提前 2 秒开窗。
   975                              ; C_RFSyncAdvance1p5Sec	equ	3		; 旧一版规格写过 1.5 秒提前，现已不用，保留注释。
   976                              C_RFSyncIdle			equ	0FFH
   977                              C_RFCh1Sync57Sec		equ	57
   978                              C_RFCh2Sync67Sec		equ	67
   979                              C_RFCh3Sync79Sec		equ	79
   980                              C_RFCh1Sync57Tick		equ	114		; 57 秒，0.5 秒粒度。
   981                              C_RFCh2Sync67Tick		equ	134		; 67 秒，0.5 秒粒度。
   982                              C_RFCh3Sync79Tick		equ	158		; 79 秒，0.5 秒粒度。
   983                              C_RFFail3Times		equ	3
   984                              C_RFFail60Min			equ	60
   985                              C_RFFail120Min			equ	120
   986                              C_RFFailRetry180Min		equ	180
   987                              C_RFFailRetry183Min		equ	183		; 120 分钟后会立刻跑一轮 3 分钟长接收，预装 183 可保证超时后还剩完整 180 分钟。
   988                              C_RFFinalRetryStage		equ		03H
   989                              
   990                              ; 室外趋势逻辑与 Alarm 的室内趋势保持同一门限：
   991                              ; 连续 60 个有效样本都没有跨阈值则回到平；
   992                              ; 温度跨度超过 1.0C、湿度跨度超过 5% 时判成上/下趋势。
   993                              D_RFTrendInit		equ	01h
   994                              D_RFTrendTempUp		equ	02h
   995                              D_RFTrendTempDown	equ	04h
   996                              D_RFTrendTempRefresh	equ	08h
   997                              D_RFTrendHumUp		equ	10h
   998                              D_RFTrendHumDown	equ	20h
   999                              D_RFTrendHumRefresh	equ	40h
  1000                              C_RFTrendEq60Samples	equ	3CH
  1001                              C_RFTrendTempOver1C	equ	0BH
  1002                              C_RFTrendHumOver5		equ	06H
  1003                              
  1004                              ; RF发码协议位宽:
  1005                              ; Bit0 = 高500us + 低2000us
  1006                              ; Bit1 = 高500us + 低1000us
  1007                              C_RFPacketBits36		equ	36
  1008                              
  1009                              ; RF收码低脉宽按 50us tick 喂入:
  1010                              ; 低电平 2ms-2.5ms = 40~50 tick, 高电平 1-1.25ms = 20~25 tick, 停止位 4~5ms = 80~100 tick
  1011                              C_RFBit1LowMinTick		equ	20
  1012                              C_RFBit1LowMaxTick		equ	35
  1013                              C_RFBit0LowMinTick		equ	40
  1014                              C_RFBit0LowMaxTick		equ	55
  1015                              C_RFStopLowMinTick		equ	80
  1016                              C_RFStopLowMaxTick		equ	100
  1017                              
  1018                              ;==========================================
  1019                              ; External declare area
  1020                              ;==========================================
  1021                              .EXTERN		RTC
  1022                              .EXTERN		P_IOD_DIR_Map
  1023                              .EXTERN		R_PortD_Data_Buf
  1024                              .EXTERN		R_KeyValue
  1025                              .EXTERN		R_OldKeyValue
  1026                              
  1027                              
  1028                              
  1029                              
  1030                              ;==========================================
  1031                              ; Public declare area
  1032                              ;==========================================
  1033                              .PUBLIC		R_RFStatus
  1034                              .PUBLIC		R_RFChannel
  1035                              .PUBLIC		R_RFViewChannel
  1036                              .PUBLIC		R_RFRequestChannel
  1037                              .PUBLIC		R_RFLongRecvTm
  1038                              .PUBLIC		R_RFAutoSwitchTm
  1039                              .PUBLIC		R_RFRecvWindowTm
  1040                              
  1041                              .PUBLIC		R_RF1SyncTm
  1042                              .PUBLIC		R_RF2SyncTm
  1043                              .PUBLIC		R_RF3SyncTm
  1044                              
  1045                              .PUBLIC		R_RFBitCnt
  1046                              .PUBLIC		R_RFPacket0
  1047                              .PUBLIC		R_RFPacket1
  1048                              .PUBLIC		R_RFPacket2
  1049                              .PUBLIC		R_RFPacket3
  1050                              .PUBLIC		R_RFPacket4
  1051                              .PUBLIC		R_RFPacket5
  1052                              
  1053                              .PUBLIC		R_RF1Flags
  1054                              .PUBLIC		R_RF1IdH
  1055                              .PUBLIC		R_RF1IdL
  1056                              .PUBLIC		R_RF1TempH
  1057                              .PUBLIC		R_RF1TempL
  1058                              .PUBLIC		R_RF1Hum
  1059                              .PUBLIC		R_RF1LostCnt
  1060                              .PUBLIC		R_RF1RetryStage
  1061                              
  1062                              .PUBLIC		R_RF2Flags
  1063                              .PUBLIC		R_RF2IdH
  1064                              .PUBLIC		R_RF2IdL
  1065                              .PUBLIC		R_RF2TempH
  1066                              .PUBLIC		R_RF2TempL
  1067                              .PUBLIC		R_RF2Hum
  1068                              .PUBLIC		R_RF2LostCnt
  1069                              .PUBLIC		R_RF2RetryStage
  1070                              
  1071                              .PUBLIC		R_RF3Flags
  1072                              .PUBLIC		R_RF3IdH
  1073                              .PUBLIC		R_RF3IdL
  1074                              .PUBLIC		R_RF3TempH
  1075                              .PUBLIC		R_RF3TempL
  1076                              .PUBLIC		R_RF3Hum
  1077                              .PUBLIC		R_RF3LostCnt
  1078                              .PUBLIC		R_RF3RetryStage
  1079                              
  1080                              .PUBLIC		R_RFTrendFlags
  1081                              
  1082                              .PUBLIC		F_RF_Init
  1083                              .PUBLIC		F_RF_SelectNextChannel
  1084                              .PUBLIC		F_RF_ClearCurrentChannel
  1085                              .PUBLIC		F_RF_StartLongReceive
  1086                              .PUBLIC		F_RF_StopLongReceive
  1087                              .PUBLIC		F_RF_ServiceHalfSec
  1088                              .PUBLIC		F_RF_Service1Sec
  1089                              .PUBLIC		F_RF_OnReceiveOK
  1090                              .PUBLIC		F_RF_OnReceiveFail
  1091                              .PUBLIC		F_RF_ResetPacketBuffer
  1092                              .PUBLIC		F_RF_AppendBit0
  1093                              .PUBLIC		F_RF_AppendBit1
  1094                              .PUBLIC		F_RF_FeedLowPulseTicks
  1095                              .PUBLIC		F_RF_Service2KHzSample
  1096                              .PUBLIC		F_RF_ParsePacket
  1097                              
  1098                              ;==========================================
  1099                              ; RF模块调试总览
  1100                              ;==========================================
  1101                              ; 主运行链:
  1102                              ; 1. F_RF_Init: 上电后清状态、清收码缓存、三路通道置 NeedPair。
  1103                              ; 2. F_RF_ServiceHalfSec: 每 0.5 秒跑接收窗口/同步窗口；每两次再进一次 F_RF_Service1Sec。
  1104                              ; 3. F_RF_Service2KHzSample: 在 2kHz 中断里采样 PD1，把连续低电平长度换算成 50us tick。
  1105                              ; 4. F_RF_FeedLowPulseTicks: 先认 4~5ms 停止位作为一帧起点，不认前导码；之后把 1ms/2ms 低脉宽翻成 bit1/bit0。
  1106                              ; 5. F_RF_ParsePacket: 收满 36bit 后先做双帧一致确认，再按包内通道和已绑定 ID 判断是否落库。
  1107                              ; 6. F_RF_LoadPacketToRequestChannel: 把 ID/温度/湿度/低电信息写入目标通道缓存。
  1108                              ;
  1109                              ; 包格式(MSB first，bit0 先进 Packet0 bit7):
  1110                              ; Packet0 = 发射器 ID 8bit。
  1111                              ; Packet1 bit7 = 电池标志(1=正常, 0=低电), bit6 = 当前未用,
  1112                              ;         bit5~4 = 通道码, bit3~0 = 温度高 4bit(12bit 补码的高位，bit3 为符号位)。
  1113                              ; Packet2 = 温度低 8bit。
  1114                              ; Packet3 高 4bit 当前未用, 低 4bit = 湿度高 4bit。
  1115                              ; Packet4 高 4bit = 湿度低 4bit, 低 4bit 当前未用。
  1116                              ; 当前抓码验证到：拼出来的这 8bit 湿度是反码，落库前还要再 EOR FFh。
  1117                              ; 温度最终存入 R_RF1TempH/L ~ R_RF3TempH/L，为 16bit 符号扩展后的值。
  1118                              ;
  1119                              ; 关键观察变量:
  1120                              ; R_RFStatus: bit0 LongRecv, bit1 CycleMode, bit2 NeedSync, bit3 RecvBusy。
  1121                              ; R_RFRequestChannel: 当前接收窗口正在等哪一路包。
  1122                              ; R_RF1SyncTm~R_RF3SyncTm: 三路同步倒计时，单位 0.5 秒，FF 表示 idle。
  1123                              ; R_RFSamplePrev / R_RFLowSampleCnt / R_RFPulseTicks: PD1 采样与低脉宽换算链。
  1124                              ; R_RFCaptureActive / R_RFBitCnt / R_RFPacket0~4: 当前帧是否已锁定、已收 bit 数、解包前原始缓存。
  1125                              ; R_RFPendingValid / R_RFPending0~4: 上一帧缓存，用来做“双帧一致确认”。
  1126                              ; R_RF1Flags~R_RF3Flags: bit0 Valid, bit1 LowBat, bit2 Lost, bit3 NeedPair。
  1127                              ; R_RF1IdL~R_RF3IdL: 每个通道绑定过的发射器 ID。
  1128                              ; R_RF1TempH/L、R_RF1Hum ...: 通道最终温湿度结果。
  1129                              ; R_RFTrendFlags: 三个室外通道各自的趋势状态位，布局与 Alarm 的室内趋势位一致。
  1130                              ; R_RF1LostCnt / R_RF1MissMin / R_RF1RetryStage / R_RF1RetryTm ...: 掉码、分钟累计与重试阶段。
  1131                              ;
  1132                              ; 函数速查:
  1133                              ; F_RF_Init: 初始化整个 RF 状态机，并把 CH1/2/3 清成待配对。
  1134                              ; F_RF_SelectNextChannel: 手动 CH1 -> CH2 -> CH3 -> Auto 切换。
  1135                              ; F_RF_ClearCurrentChannel: 清当前显示通道，并进入长接收重配对。
  1136                              ; F_RF_LoadSelectedChannelOffsets: 把通道号换成数据偏移 X 和同步偏移 Y。
  1137                              ; F_RF_StartLongReceive / F_RF_StopLongReceive: 进入或退出 3 分钟长接收。
  1138                              ; F_RF_ServiceHalfSec / F_RF_Service1Sec / F_RF_ServiceMinuteTick: 0.5 秒、1 秒、1 分钟调度入口。
  1139                              ; F_RF_SetSelectedChannelValid / F_RF_SetSelectedChannelLost: 更新某一路的有效/掉码状态，但掉码不清 ID。
  1140                              ; F_RF_OnReceiveOK / F_RF_OnReceiveFail: 一次接收窗口完成后的统一收口。
  1141                              ; F_RF_ClearSelectedChannel: 清某通道缓存并恢复成 NeedPair。
  1142                              ; F_RF_ServiceAutoView: Auto 模式每 4 秒切换显示通道。
  1143                              ; F_RF_ServiceReceiveWindow: 接收窗口倒计时，超时算失败。
  1144                              ; F_RF_ServiceSyncTimers: 推进三路同步倒计时。
  1145                              ; F_RF_ServiceChannel1Sync / F_RF_ServiceChannel2Sync / F_RF_ServiceChannel3Sync: 三路同步窗口触发入口。
  1146                              ; F_RF_RequestSync: 打开指定通道的 2 秒同步接收窗口。
  1147                              ; F_RF_UpdateReceiverEnable: 按 LongRecv/RecvBusy 状态驱动 PD0 低有效使能。
  1148                              ; F_RF_ReloadRequestChannelSync / F_RF_LoadRequestChannelFirstSync: 装载当前请求通道的下次同步点。
  1149                              ; F_RF_ReloadChannel1Sync / F_RF_ReloadChannel2Sync / F_RF_ReloadChannel3Sync: 重装 57/67/79 秒同步周期。
  1150                              ; F_RF_ServiceChannel1Minute / F_RF_ServiceChannel2Minute / F_RF_ServiceChannel3Minute / F_RF_ServiceSelectedChannelMinute:
  1151                              ; 按分钟累计掉码时长，并在 60/120/180 分钟节点触发补救接收。
  1152                              ; F_RF_ClearPendingFrame / F_RF_SavePendingFrame / F_RF_IsCurrentFrameConfirmed: 维护双帧确认缓存。
  1153                              ; F_RF_IsRequestChannelPacketAccepted: 按 NeedPair 或已绑定 ID 决定当前包是否允许写入。
  1154                              ; F_RF_ResetPacketBuffer / F_RF_AppendBit0 / F_RF_AppendBit1: 维护 36bit 当前帧缓存。
  1155                              ; F_RF_FeedLowPulseTicks: 识别停止位和 bit0/bit1 低脉宽。
  1156                              ; F_RF_Service2KHzSample: 在中断中测脉宽并送入解码入口。
  1157                              ; F_RF_ParsePacket: 双帧确认后判通道、验 ID、落库、置有效。
  1158                              ; F_RF_BuildPacketBitMask / F_RF_SetBitInPacket0~4: 把某个 bit1 写进对应 Packet 字节。
  1159                              ; F_RF_LoadPacketToRequestChannel: 从 Packet0~4 提取 ID、温度、湿度、电池状态到通道 RAM。
  1160                              
  1161                              ;==========================================
  1162                              ;Variable RAM declare area
  1163                              ;==========================================
  1164 00000000                     RFCRAM	.section
  1165 00000000 FF                  R_RFStatus			ds	1
  1166 00000001 FF                  R_RFChannel			ds	1
  1167 00000002 FF                  R_RFViewChannel		ds	1
  1168 00000003 FF                  R_RFRequestChannel	ds	1
  1169 00000004 FF                  R_RFLongRecvTm		ds	1
  1170 00000005 FF                  R_RFAutoSwitchTm	ds	1
  1171 00000006 FF                  R_RFRecvWindowTm	ds	1
  1172                              
  1173 00000007 FF                  R_RF1SyncTm			ds	1
  1174 00000008 FF                  R_RF2SyncTm			ds	1
  1175 00000009 FF                  R_RF3SyncTm			ds	1
  1176                              
  1177 0000000A FF                  R_RFBitCnt			ds	1
  1178 0000000B FF                  R_RFPacket0			ds	1
  1179 0000000C FF                  R_RFPacket1			ds	1
  1180 0000000D FF                  R_RFPacket2			ds	1
  1181 0000000E FF                  R_RFPacket3			ds	1
  1182 0000000F FF                  R_RFPacket4			ds	1
  1183 00000010 FF                  R_RFPacket5			ds	1
  1184 00000011 FF                  R_RFPendingValid	ds	1
  1185 00000012 FF                  R_RFPending0		ds	1
  1186 00000013 FF                  R_RFPending1		ds	1
  1187 00000014 FF                  R_RFPending2		ds	1
  1188 00000015 FF                  R_RFPending3		ds	1
  1189 00000016 FF                  R_RFPending4		ds	1
  1190 00000017 FF                  R_RFCaptureActive	ds	1
  1191 00000018 FF                  R_RFPulseTicks		ds	1
  1192 00000019 FF                  R_RFSamplePrev		ds	1
  1193 0000001A FF                  R_RFLowSampleCnt	ds	1
  1194 0000001B FF                  R_RFHalfSecDiv		ds	1
  1195 0000001C FF                  R_RFMinuteStamp		ds	1
  1196                              
  1197 0000001D FF                  R_RF1Flags			ds	1
  1198 0000001E FF                  R_RF1IdH			ds	1
  1199 0000001F FF                  R_RF1IdL			ds	1
  1200 00000020 FF                  R_RF1TempH			ds	1
  1201 00000021 FF                  R_RF1TempL			ds	1
  1202 00000022 FF                  R_RF1Hum			ds	1
  1203 00000023 FF                  R_RF1LostCnt		ds	1
  1204 00000024 FF                  R_RF1MissMin		ds	1
  1205 00000025 FF                  R_RF1RetryStage	ds	1
  1206 00000026 FF                  R_RF1RetryTm		ds	1
  1207                              
  1208 00000027 FF                  R_RF2Flags			ds	1
  1209 00000028 FF                  R_RF2IdH			ds	1
  1210 00000029 FF                  R_RF2IdL			ds	1
  1211 0000002A FF                  R_RF2TempH			ds	1
  1212 0000002B FF                  R_RF2TempL			ds	1
  1213 0000002C FF                  R_RF2Hum			ds	1
  1214 0000002D FF                  R_RF2LostCnt		ds	1
  1215 0000002E FF                  R_RF2MissMin		ds	1
  1216 0000002F FF                  R_RF2RetryStage	ds	1
  1217 00000030 FF                  R_RF2RetryTm		ds	1
  1218                              
  1219 00000031 FF                  R_RF3Flags			ds	1
  1220 00000032 FF                  R_RF3IdH			ds	1
  1221 00000033 FF                  R_RF3IdL			ds	1
  1222 00000034 FF                  R_RF3TempH			ds	1
  1223 00000035 FF                  R_RF3TempL			ds	1
  1224 00000036 FF                  R_RF3Hum			ds	1
  1225 00000037 FF                  R_RF3LostCnt		ds	1
  1226 00000038 FF                  R_RF3MissMin		ds	1
  1227 00000039 FF                  R_RF3RetryStage	ds	1
  1228 0000003A FF                  R_RF3RetryTm		ds	1
  1229                              
  1230                              ; 三个 RF 通道各自维护一套趋势窗口，避免 Auto 轮显时因为切通道而把趋势状态洗掉。
  1231 0000003B FF FF FF            R_RFTrendFlags		ds	3
  1232 0000003E FF FF FF            R_RFTrendTempEqCnt	ds	3
  1233 00000041 FF FF FF            R_RFTrendHumEqCnt	ds	3
  1234 00000044 FF FF FF            R_RFTrendTempMaxH	ds	3
  1235 00000047 FF FF FF            R_RFTrendTempMaxL	ds	3
  1236 0000004A FF FF FF            R_RFTrendTempMinH	ds	3
  1237 0000004D FF FF FF            R_RFTrendTempMinL	ds	3
  1238 00000050 FF FF FF            R_RFTrendHumMax	ds	3
  1239 00000053 FF FF FF            R_RFTrendHumMin	ds	3
  1240 00000056 FF                  R_RFTrendCmpL		ds	1
  1241                              
  1242                              ;==========================================
  1243                              ; code starting 
  1244                              ;==========================================
  1245 00000000                     .CODE
  1246                              
  1247                              ; 输入: 无。
  1248                              ; 输出: 清所有 RF 运行态，三路通道都回到 NeedPair，默认当前显示 CH1。
  1249                              ; 调试: 上电后先看 R_RFStatus、R_RFChannel、R_RFViewChannel、R_RF1Flags~R_RF3Flags。
  1250 00000000                     F_RF_Init:					; RF模块初始化
  1251 00000000 A9 00               		LDA		#00H
  1252 00000002 8D 00 00            		STA		R_RFStatus
  1253 00000005 8D 03 00            		STA		R_RFRequestChannel
  1254 00000008 8D 04 00            		STA		R_RFLongRecvTm
  1255 0000000B 8D 05 00            		STA		R_RFAutoSwitchTm
  1256 0000000E 8D 06 00            		STA		R_RFRecvWindowTm
  1257 00000011 8D 0A 00            		STA		R_RFBitCnt
  1258 00000014 8D 11 00            		STA		R_RFPendingValid
  1259 00000017 8D 17 00            		STA		R_RFCaptureActive
  1260 0000001A 8D 19 00            		STA		R_RFSamplePrev
  1261 0000001D 8D 1A 00            		STA		R_RFLowSampleCnt
  1262 00000020 8D 1B 00            		STA		R_RFHalfSecDiv
  1263 00000023 8D 24 00            		STA		R_RF1MissMin
  1264 00000026 8D 25 00            		STA		R_RF1RetryStage
  1265 00000029 8D 26 00            		STA		R_RF1RetryTm
  1266 0000002C 8D 2E 00            		STA		R_RF2MissMin
  1267 0000002F 8D 2F 00            		STA		R_RF2RetryStage
  1268 00000032 8D 30 00            		STA		R_RF2RetryTm
  1269 00000035 8D 38 00            		STA		R_RF3MissMin
  1270 00000038 8D 39 00            		STA		R_RF3RetryStage
  1271 0000003B 8D 3A 00            		STA		R_RF3RetryTm
  1272 0000003E AD 01 00            		LDA		RTC+1
  1273 00000041 8D 1C 00            		STA		R_RFMinuteStamp
  1274 00000044 20 ED 04            		JSR		F_RF_ResetPacketBuffer
  1275 00000047 20 4A 04            		JSR		F_RF_ClearPendingFrame
  1276 0000004A 20 68 03            		JSR		F_RF_UpdateReceiverEnable
  1277 0000004D A9 01               		LDA		#D_RFCh1
  1278 0000004F 20 4C 02            		JSR		F_RF_ClearSelectedChannel
  1279 00000052 A9 02               		LDA		#D_RFCh2
  1280 00000054 20 4C 02            		JSR		F_RF_ClearSelectedChannel
  1281 00000057 A9 03               		LDA		#D_RFCh3
  1282 00000059 20 4C 02            		JSR		F_RF_ClearSelectedChannel
  1283 0000005C A9 01               		LDA		#D_RFCh1
  1284 0000005E 8D 01 00            		STA		R_RFChannel
  1285 00000061 8D 02 00            		STA		R_RFViewChannel
  1286 00000064 60                  		RTS
  1287                              
  1288                              ; 输入: R_RFChannel 当前手动选择状态。
  1289                              ; 输出: CH1 -> CH2 -> CH3 -> Auto 循环；进入 Auto 时会置 D_RFCycleMode 并装入 4 秒轮显定时。
  1290                              ; 调试: 看 R_RFChannel、R_RFViewChannel、R_RFAutoSwitchTm、R_RFStatus 的 D_RFCycleMode 位。
  1291 00000065                     F_RF_SelectNextChannel:			; CH1 -> CH2 -> CH3 -> Auto
  1292 00000065 AD 01 00            		LDA		R_RFChannel
  1293 00000068 C9 01               		CMP		#D_RFCh1
  1294 0000006A F0 1E               		BEQ		RF_NextCh2
  1295 0000006C C9 02               		CMP		#D_RFCh2
  1296 0000006E F0 30               		BEQ		RF_NextCh3
  1297 00000070 C9 03               		CMP		#D_RFCh3
  1298 00000072 F0 42               		BEQ		RF_NextAuto
  1299 00000074                     RF_NextCh1:
  1300                              		; 回到手动 CH1 时，必须退出 Auto 轮显模式并清轮显定时。
  1301 00000074 A9 01               		LDA		#D_RFCh1
  1302 00000076 8D 01 00            		STA		R_RFChannel
  1303 00000079 8D 02 00            		STA		R_RFViewChannel
  1304 0000007C AD 00 00            		LDA		R_RFStatus
  1305 0000007F 29 FD               		AND		#(.NOT.(D_RFCycleMode))
  1306 00000081 8D 00 00            		STA		R_RFStatus
  1307 00000084 A9 00               		LDA		#00H
  1308 00000086 8D 05 00            		STA		R_RFAutoSwitchTm
  1309 00000089 60                  		RTS
  1310 0000008A                     RF_NextCh2:
  1311                              		; CH2/CH3 的处理和 CH1 一样，都是固定显示，不走 Auto 定时。
  1312 0000008A A9 02               		LDA		#D_RFCh2
  1313 0000008C 8D 01 00            		STA		R_RFChannel
  1314 0000008F 8D 02 00            		STA		R_RFViewChannel
  1315 00000092 AD 00 00            		LDA		R_RFStatus
  1316 00000095 29 FD               		AND		#(.NOT.(D_RFCycleMode))
  1317 00000097 8D 00 00            		STA		R_RFStatus
  1318 0000009A A9 00               		LDA		#00H
  1319 0000009C 8D 05 00            		STA		R_RFAutoSwitchTm
  1320 0000009F 60                  		RTS
  1321 000000A0                     RF_NextCh3:
  1322 000000A0 A9 03               		LDA		#D_RFCh3
  1323 000000A2 8D 01 00            		STA		R_RFChannel
  1324 000000A5 8D 02 00            		STA		R_RFViewChannel
  1325 000000A8 AD 00 00            		LDA		R_RFStatus
  1326 000000AB 29 FD               		AND		#(.NOT.(D_RFCycleMode))
  1327 000000AD 8D 00 00            		STA		R_RFStatus
  1328 000000B0 A9 00               		LDA		#00H
  1329 000000B2 8D 05 00            		STA		R_RFAutoSwitchTm
  1330 000000B5 60                  		RTS
  1331 000000B6                     RF_NextAuto:
  1332                              		; 进入 Auto 后从 CH1 开始轮显，后续由 F_RF_ServiceAutoView 每 4 秒切一次。
  1333 000000B6 A9 04               		LDA		#D_RFAutoMode
  1334 000000B8 8D 01 00            		STA		R_RFChannel
  1335 000000BB A9 01               		LDA		#D_RFCh1
  1336 000000BD 8D 02 00            		STA		R_RFViewChannel
  1337 000000C0 A9 04               		LDA		#C_RFAutoSwitch4Sec
  1338 000000C2 8D 05 00            		STA		R_RFAutoSwitchTm
  1339 000000C5 AD 00 00            		LDA		R_RFStatus
  1340 000000C8 09 02               		ORA		#D_RFCycleMode
  1341 000000CA 8D 00 00            		STA		R_RFStatus
  1342 000000CD 60                  		RTS
  1343                              
  1344                              ; 输入: R_RFViewChannel 当前显示通道。
  1345                              ; 输出: 清当前显示通道缓存，并直接跳到长接收重配对。
  1346                              ; 调试: 看 R_RFViewChannel、对应通道的 Id/Flags，以及 R_RFStatus 的 D_RFLongRecv 位。
  1347 000000CE                     F_RF_ClearCurrentChannel:		; 长按CH后清当前通道缓存并重进长接收
  1348 000000CE AD 02 00            		LDA		R_RFViewChannel
  1349 000000D1 20 4C 02            		JSR		F_RF_ClearSelectedChannel
  1350 000000D4 4C ED 00            		JMP		F_RF_StartLongReceive
  1351                              
  1352                              ; 输入: A=通道号。
  1353                              ; 输出: X 返回通道数据区偏移(0/10/20)，Y 返回同步计时偏移(0/1/2)。
  1354                              ; 调试: 如果后续写错通道，先断在这里看 A、X、Y 是否对应 CH1/CH2/CH3。
  1355 000000D7                     F_RF_LoadSelectedChannelOffsets:	; A=通道号, X=记录偏移(0/10/20), Y=同步偏移(0/1/2)
  1356 000000D7 A2 00               		LDX		#00H
  1357 000000D9 A0 00               		LDY		#00H
  1358 000000DB C9 02               		CMP		#D_RFCh2
  1359 000000DD D0 05               		BNE		RF_LoadSelectedChannelOffsets_CheckCh3
  1360 000000DF A2 0A               		LDX		#0AH
  1361 000000E1 A0 01               		LDY		#01H
  1362 000000E3 60                  		RTS
  1363 000000E4                     RF_LoadSelectedChannelOffsets_CheckCh3:
  1364 000000E4 C9 03               		CMP		#D_RFCh3
  1365 000000E6 D0 04               		BNE		RF_LoadSelectedChannelOffsets_End
  1366 000000E8 A2 14               		LDX		#14H
  1367 000000EA A0 02               		LDY		#02H
  1368 000000EC                     RF_LoadSelectedChannelOffsets_End:
  1369 000000EC 60                  		RTS
  1370                              
  1371                              ; 输入: 无。
  1372                              ; 输出: 置 D_RFLongRecv，开 3 分钟长接收，清请求通道和当前接收窗口，并刷新 RF_EN。
  1373                              ; 调试: 看 R_RFStatus、R_RFLongRecvTm、R_RFRequestChannel、R_RFRecvWindowTm。
  1374 000000ED                     F_RF_StartLongReceive:			; 进入3分钟长接收状态
  1375 000000ED AD 00 00            		LDA		R_RFStatus
  1376 000000F0 09 01               		ORA		#D_RFLongRecv
  1377 000000F2 8D 00 00            		STA		R_RFStatus
  1378 000000F5 A9 B4               		LDA		#C_RFLongRecv3Min
  1379 000000F7 8D 04 00            		STA		R_RFLongRecvTm
  1380 000000FA A9 00               		LDA		#00H
  1381 000000FC 8D 03 00            		STA		R_RFRequestChannel
  1382 000000FF 8D 06 00            		STA		R_RFRecvWindowTm
  1383 00000102 20 4A 04            		JSR		F_RF_ClearPendingFrame
  1384                              		; 新一轮长接收从干净状态开始，不能带着上一轮半截 frame 继续收。
  1385 00000105 20 ED 04            		JSR		F_RF_ResetPacketBuffer
  1386 00000108 20 68 03            		JSR		F_RF_UpdateReceiverEnable
  1387                              		%bits	R_TimeStatus,AddOthers
  1388 0000010B AD 00 00          1           lda     R_TimeStatus               ;ex.  
  1389 0000010E 09 10             1           ora     #AddOthers              ;  %bits 10H,_BIT0
  1390                            1 		                   ;  10H.0=1
  1391 00000110 8D 00 00          1           sta     R_TimeStatus               ;
  1392 00000113 60                  		RTS
  1393                              
  1394                              ; 输入: 无。
  1395                              ; 输出: 清掉长接收、NeedSync、RecvBusy，并把 RF_EN 关掉。
  1396                              ; 调试: 长接收超时后看 R_RFStatus 和 PD0 输出是否回到高电平。
  1397 00000114                     F_RF_StopLongReceive:			; 退出长接收状态
  1398 00000114 AD 00 00            		LDA		R_RFStatus
  1399 00000117 29 F2               		AND		#(.NOT.(D_RFLongRecv+D_RFNeedSync+D_RFRecvBusy))
  1400 00000119 8D 00 00            		STA		R_RFStatus
  1401 0000011C A9 00               		LDA		#00H
  1402 0000011E 8D 04 00            		STA		R_RFLongRecvTm
  1403 00000121 8D 03 00            		STA		R_RFRequestChannel
  1404 00000124 8D 06 00            		STA		R_RFRecvWindowTm
  1405 00000127 20 4A 04            		JSR		F_RF_ClearPendingFrame
  1406 0000012A 20 ED 04            		JSR		F_RF_ResetPacketBuffer
  1407 0000012D 20 68 03            		JSR		F_RF_UpdateReceiverEnable
  1408                              		%bits	R_TimeStatus,AddOthers
  1409 00000130 AD 00 00          1           lda     R_TimeStatus               ;ex.  
  1410 00000133 09 10             1           ora     #AddOthers              ;  %bits 10H,_BIT0
  1411                            1 		                   ;  10H.0=1
  1412 00000135 8D 00 00          1           sta     R_TimeStatus               ;
  1413 00000138 60                  		RTS
  1414                              
  1415                              ; 输入: 由 0.5 秒节拍调用。
  1416                              ; 输出: 先推进接收窗口与同步窗口，再每两次补跑一次 1 秒业务。
  1417                              ; 调试: 看 R_RFHalfSecDiv 是否 0/1 翻转，以及同步计时是否按 0.5 秒递减。
  1418 00000139                     F_RF_ServiceHalfSec:			; 0.5秒调度：同步窗口与同步计时按半秒粒度运行
  1419                              		; 最新协议已改回“提前 2 秒开始接收”，所以同步相关计时全部按 0.5 秒粒度维护。
  1420 00000139 20 EB 02            		JSR		F_RF_ServiceReceiveWindow
  1421 0000013C 20 03 03            		JSR		F_RF_ServiceSyncTimers
  1422 0000013F AD 00 00            		LDA		R_RFStatus
  1423 00000142 29 01               		AND		#D_RFLongRecv
  1424 00000144 F0 08               		BEQ		RF_ServiceHalfSec_Check1Sec
  1425                              		; 长接收中的 RF 图标需要按 1Hz 闪烁，所以半秒就要刷新一次 LCD。
  1426                              		%bits	R_TimeStatus,AddOthers
  1427 00000146 AD 00 00          1           lda     R_TimeStatus               ;ex.  
  1428 00000149 09 10             1           ora     #AddOthers              ;  %bits 10H,_BIT0
  1429                            1 		                   ;  10H.0=1
  1430 0000014B 8D 00 00          1           sta     R_TimeStatus               ;
  1431                              
  1432 0000014E                     	RF_ServiceHalfSec_Check1Sec:
  1433 0000014E AD 1B 00            		LDA		R_RFHalfSecDiv
  1434 00000151 49 01               		EOR		#01H
  1435 00000153 8D 1B 00            		STA		R_RFHalfSecDiv
  1436 00000156 D0 03               		BNE		RF_ServiceHalfSec_End
  1437 00000158 20 5C 01            		JSR		F_RF_Service1Sec
  1438 0000015B                     RF_ServiceHalfSec_End:
  1439 0000015B 60                  		RTS
  1440                              
  1441                              ; 输入: 由 F_RF_ServiceHalfSec 每 1 秒调用一次。
  1442                              ; 输出: 跑轮显、分钟跳变检测，并维护长接收 3 分钟寿命。
  1443                              ; 调试: 看 R_RFAutoSwitchTm、R_RFMinuteStamp、R_RFLongRecvTm 是否按秒变化。
  1444 0000015C                     F_RF_Service1Sec:			; 1秒业务入口：处理轮显、长接收寿命和分钟边界
  1445 0000015C                     	RF_Service1Sec_Common:
  1446 0000015C 20 92 02            		JSR		F_RF_ServiceAutoView
  1447 0000015F 20 7A 01            		JSR		F_RF_ServiceMinuteTick
  1448                              
  1449 00000162                     RF_CheckLongReceive:
  1450 00000162 AD 00 00            		LDA		R_RFStatus
  1451 00000165 29 01               		AND		#D_RFLongRecv
  1452 00000167 F0 10               		BEQ		RF_Service1Sec_RunSync
  1453                              		; 长接收寿命只在 D_RFLongRecv 期间递减，降到 0 就自动退出。
  1454 00000169 AD 04 00            		LDA		R_RFLongRecvTm
  1455 0000016C F0 08               		BEQ		RF_StopLongReceive_Timeout
  1456 0000016E 38                  		SEC
  1457 0000016F E9 01               		SBC		#01H
  1458 00000171 8D 04 00            		STA		R_RFLongRecvTm
  1459 00000174 D0 03               		BNE		RF_Service1Sec_RunSync
  1460 00000176                     RF_StopLongReceive_Timeout:
  1461                              		; 3 分钟长接收到点后，统一走 StopLongReceive 收口并关闭 RF_EN。
  1462 00000176 20 14 01            		JSR		F_RF_StopLongReceive
  1463                              
  1464 00000179                     	RF_Service1Sec_RunSync:
  1465 00000179                     RF_Service1Sec_End:
  1466 00000179 60                  		RTS
  1467                              
  1468                              ; 输入: RTC+1 当前分钟值。
  1469                              ; 输出: 只有分钟发生跳变时，才推进三路掉码分钟累计状态机。
  1470                              ; 调试: 看 R_RFMinuteStamp 是否跟 RTC+1 同步更新。
  1471 0000017A                     F_RF_ServiceMinuteTick:		; 仅在 RTC 分钟跳变时推进三路掉码分级状态机
  1472                              		; 60/120 分钟掉码分级按 RTC 的分钟跳变计数，不再按同步失败次数粗暴代替。
  1473 0000017A AD 01 00            		LDA		RTC+1
  1474 0000017D CD 1C 00            		CMP		R_RFMinuteStamp
  1475 00000180 F0 0C               		BEQ		RF_ServiceMinuteTick_End
  1476 00000182 8D 1C 00            		STA		R_RFMinuteStamp
  1477 00000185 20 DA 03            		JSR		F_RF_ServiceChannel1Minute
  1478 00000188 20 E1 03            		JSR		F_RF_ServiceChannel2Minute
  1479 0000018B 20 E8 03            		JSR		F_RF_ServiceChannel3Minute
  1480 0000018E                     RF_ServiceMinuteTick_End:
  1481 0000018E 60                  		RTS
  1482                              
  1483                              ; 输入: A=通道号。
  1484                              ; 输出: 清 lost/NeedPair，置 valid，并把该通道掉码与重试计数清零。
  1485                              ; 调试: 收到有效包后看对应通道 Flags 是否从 Lost/NeedPair 变成 Valid。
  1486 0000018F                     F_RF_SetSelectedChannelValid:		; A=通道号，清掉 lost/retry 并恢复有效标志
  1487 0000018F 20 D7 00            		JSR		F_RF_LoadSelectedChannelOffsets
  1488 00000192 BD 1D 00            		LDA		R_RF1Flags,X
  1489 00000195 29 F3               		AND		#(.NOT.(D_RFLost+D_RFNeedPair))
  1490 00000197 09 01               		ORA		#D_RFValid
  1491 00000199 9D 1D 00            		STA		R_RF1Flags,X
  1492 0000019C A9 00               		LDA		#00H
  1493 0000019E 9D 23 00            		STA		R_RF1LostCnt,X
  1494 000001A1 9D 24 00            		STA		R_RF1MissMin,X
  1495 000001A4 9D 25 00            		STA		R_RF1RetryStage,X
  1496 000001A7 9D 26 00            		STA		R_RF1RetryTm,X
  1497 000001AA 60                  		RTS
  1498                              
  1499                              ; 输入: A=通道号。
  1500                              ; 输出: 仅置 Lost，不清 ID，也不回到 NeedPair。
  1501                              ; 调试: 重点看对应通道 Flags、LostCnt、IdL，确认“掉码不清 ID”成立。
  1502 000001AB                     F_RF_SetSelectedChannelLost:		; A=通道号，仅置 lost 但保留已配对 ID
  1503 000001AB 20 D7 00            		JSR		F_RF_LoadSelectedChannelOffsets
  1504                              		; 旧逻辑会直接置 NeedPair，和“掉码不清 ID”冲突，保留注释不删除。
  1505                              		; 		LDA		R_RF1Flags,X
  1506                              		; 		AND		#(.NOT.(D_RFValid))
  1507                              		; 		ORA		#(D_RFLost+D_RFNeedPair)
  1508 000001AE BD 1D 00            		LDA		R_RF1Flags,X
  1509 000001B1 29 F6               		AND		#(.NOT.(D_RFValid+D_RFNeedPair))
  1510 000001B3 09 04               		ORA		#D_RFLost
  1511 000001B5 9D 1D 00            		STA		R_RF1Flags,X
  1512 000001B8 60                  		RTS
  1513                              
  1514                              ; 输入: A=请求通道号。
  1515                              ; 输出: 对应通道的 LostCnt +1；满 3 次时钳到 3 并置 lost。
  1516                              ; 调试: 看对应通道 LostCnt 是否只增一次，以及第 3 次时 Flags 是否转成 lost。
  1517 000001B9                     F_RF_HandleSelectedChannelFail:
  1518 000001B9 48                  		PHA
  1519 000001BA 20 D7 00            		JSR		F_RF_LoadSelectedChannelOffsets
  1520 000001BD FE 23 00            		INC		R_RF1LostCnt,X
  1521 000001C0 BD 23 00            		LDA		R_RF1LostCnt,X
  1522 000001C3 C9 03               		CMP		#C_RFFail3Times
  1523 000001C5 90 0A               		BCC		RF_HandleSelectedChannelFail_End
  1524 000001C7 A9 03               		LDA		#C_RFFail3Times
  1525 000001C9 9D 23 00            		STA		R_RF1LostCnt,X
  1526 000001CC 68                  		PLA
  1527 000001CD 20 AB 01            		JSR		F_RF_SetSelectedChannelLost
  1528 000001D0 60                  		RTS
  1529                              
  1530 000001D1                     RF_HandleSelectedChannelFail_End:
  1531 000001D1 68                  		PLA
  1532 000001D2 60                  		RTS
  1533                              
  1534                              ; 输入: 无。
  1535                              ; 输出: 只要三路里仍有 NeedPair/Lost，就返回 SEC 继续长接收；否则返回 CLC 可提前退出。
  1536                              ; 调试: 上电长接收或掉码重收时，看三路 Flags 的 Lost/NeedPair 是否都清零。
  1537 000001D3                     F_RF_ShouldContinueLongReceive:
  1538 000001D3 AD 1D 00            		LDA		R_RF1Flags
  1539 000001D6 29 0C               		AND		#(D_RFLost+D_RFNeedPair)
  1540 000001D8 D0 10               		BNE		RF_ShouldContinueLongReceive_Yes
  1541 000001DA AD 27 00            		LDA		R_RF2Flags
  1542 000001DD 29 0C               		AND		#(D_RFLost+D_RFNeedPair)
  1543 000001DF D0 09               		BNE		RF_ShouldContinueLongReceive_Yes
  1544 000001E1 AD 31 00            		LDA		R_RF3Flags
  1545 000001E4 29 0C               		AND		#(D_RFLost+D_RFNeedPair)
  1546 000001E6 D0 02               		BNE		RF_ShouldContinueLongReceive_Yes
  1547 000001E8 18                  		CLC
  1548 000001E9 60                  		RTS
  1549                              
  1550 000001EA                     RF_ShouldContinueLongReceive_Yes:
  1551 000001EA 38                  		SEC
  1552 000001EB 60                  		RTS
  1553                              
  1554                              ; 输入: 当前一帧已经通过双帧确认并完成落库。
  1555                              ; 输出: 收口本次接收窗口，必要时装下次同步点，并把对应通道置 Valid。
  1556                              ; 调试: 成功收包后看 R_RFRecvWindowTm 是否清零、R_RFRequestChannel 是否清掉、通道 Flags 是否置 Valid。
  1557 000001EC                     F_RF_OnReceiveOK:			; RF底层收到有效包后调用
  1558 000001EC AD 00 00            		LDA		R_RFStatus
  1559 000001EF 29 F3               		AND		#(.NOT.(D_RFNeedSync+D_RFRecvBusy))
  1560 000001F1 8D 00 00            		STA		R_RFStatus
  1561 000001F4 A9 00               		LDA		#00H
  1562 000001F6 8D 06 00            		STA		R_RFRecvWindowTm
  1563 000001F9 20 4A 04            		JSR		F_RF_ClearPendingFrame
  1564 000001FC 20 68 03            		JSR		F_RF_UpdateReceiverEnable
  1565                              		%bits	R_TimeStatus,AddOthers
  1566 000001FF AD 00 00          1           lda     R_TimeStatus               ;ex.  
  1567 00000202 09 10             1           ora     #AddOthers              ;  %bits 10H,_BIT0
  1568                            1 		                   ;  10H.0=1
  1569 00000204 8D 00 00          1           sta     R_TimeStatus               ;
  1570 00000207                     	RF_OnReceiveOK_CheckRequestChannel:
  1571 00000207 AD 03 00            		LDA		R_RFRequestChannel
  1572 0000020A 20 8F 01            		JSR		F_RF_SetSelectedChannelValid
  1573 0000020D AD 00 00            		LDA		R_RFStatus
  1574 00000210 29 01               		AND		#D_RFLongRecv
  1575 00000212 F0 32               		BEQ		RF_ClearRequestChannel
  1576                              		; 长接收里收包成功后，要先给该通道补上下次常规同步点，
  1577                              		; 再判断三路是否都已经收齐，以便提前退出 3 分钟长接收。
  1578 00000214 20 AB 03            		JSR		F_RF_LoadRequestChannelFirstSync
  1579 00000217 20 D3 01            		JSR		F_RF_ShouldContinueLongReceive
  1580 0000021A B0 2A               		BCS		RF_ClearRequestChannel
  1581 0000021C 20 14 01            		JSR		F_RF_StopLongReceive
  1582 0000021F 4C 46 02            		JMP		RF_ClearRequestChannel
  1583                              
  1584                              ; 输入: 一次接收窗口超时或收到坏包。
  1585                              ; 输出: 收口本次窗口，LostCnt 累加；连续 3 次失败就把该通道标 Lost。
  1586                              ; 调试: 看 R_RFRequestChannel、R_RFRecvWindowTm、对应通道 LostCnt/Flags。
  1587 00000222                     F_RF_OnReceiveFail:			; RF底层接收超时或校验失败后调用
  1588 00000222 AD 00 00            		LDA		R_RFStatus
  1589 00000225 29 F3               		AND		#(.NOT.(D_RFNeedSync+D_RFRecvBusy))
  1590 00000227 8D 00 00            		STA		R_RFStatus
  1591 0000022A A9 00               		LDA		#00H
  1592 0000022C 8D 06 00            		STA		R_RFRecvWindowTm
  1593 0000022F 20 4A 04            		JSR		F_RF_ClearPendingFrame
  1594                              		; 超时很可能正停在一帧中间，收口时必须把当前 frame 状态一起丢掉。
  1595 00000232 20 ED 04            		JSR		F_RF_ResetPacketBuffer
  1596 00000235 20 68 03            		JSR		F_RF_UpdateReceiverEnable
  1597                              		%bits	R_TimeStatus,AddOthers
  1598 00000238 AD 00 00          1           lda     R_TimeStatus               ;ex.  
  1599 0000023B 09 10             1           ora     #AddOthers              ;  %bits 10H,_BIT0
  1600                            1 		                   ;  10H.0=1
  1601 0000023D 8D 00 00          1           sta     R_TimeStatus               ;
  1602 00000240 AD 03 00            		LDA		R_RFRequestChannel
  1603 00000243 20 B9 01            		JSR		F_RF_HandleSelectedChannelFail
  1604                              
  1605 00000246                     RF_ClearRequestChannel:
  1606                              		; 成功/失败最终都要把请求通道清掉，等待下一次窗口重新指定目标通道。
  1607 00000246 A9 00               		LDA		#00H
  1608 00000248 8D 03 00            		STA		R_RFRequestChannel
  1609 0000024B 60                  		RTS
  1610                              
  1611                              ; 输入: A=通道号。
  1612                              ; 输出: 清空该通道的 ID、温湿度、掉码状态，并置回 NeedPair。
  1613                              ; 调试: 长按清通道后，看该通道 Flags 是否只剩 NeedPair，SyncTm 是否被置 idle。
  1614 0000024C                     F_RF_ClearSelectedChannel:		; A=通道号，清 ID/温湿度/重试状态并回到待配对
  1615 0000024C 20 D7 00            		JSR		F_RF_LoadSelectedChannelOffsets
  1616 0000024F A9 00               		LDA		#00H
  1617 00000251 9D 1E 00            		STA		R_RF1IdH,X
  1618 00000254 9D 1F 00            		STA		R_RF1IdL,X
  1619 00000257 9D 20 00            		STA		R_RF1TempH,X
  1620 0000025A 9D 21 00            		STA		R_RF1TempL,X
  1621 0000025D 9D 22 00            		STA		R_RF1Hum,X
  1622 00000260 9D 23 00            		STA		R_RF1LostCnt,X
  1623 00000263 9D 24 00            		STA		R_RF1MissMin,X
  1624 00000266 9D 25 00            		STA		R_RF1RetryStage,X
  1625 00000269 9D 26 00            		STA		R_RF1RetryTm,X
  1626 0000026C 99 3B 00            		STA		R_RFTrendFlags,Y
  1627 0000026F 99 3E 00            		STA		R_RFTrendTempEqCnt,Y
  1628 00000272 99 41 00            		STA		R_RFTrendHumEqCnt,Y
  1629 00000275 99 44 00            		STA		R_RFTrendTempMaxH,Y
  1630 00000278 99 47 00            		STA		R_RFTrendTempMaxL,Y
  1631 0000027B 99 4A 00            		STA		R_RFTrendTempMinH,Y
  1632 0000027E 99 4D 00            		STA		R_RFTrendTempMinL,Y
  1633 00000281 99 50 00            		STA		R_RFTrendHumMax,Y
  1634 00000284 99 53 00            		STA		R_RFTrendHumMin,Y
  1635 00000287 A9 FF               		LDA		#C_RFSyncIdle
  1636 00000289 99 07 00            		STA		R_RF1SyncTm,Y
  1637 0000028C A9 08               		LDA		#D_RFNeedPair
  1638 0000028E 9D 1D 00            		STA		R_RF1Flags,X
  1639 00000291 60                  		RTS
  1640                              
  1641                              ; 输入: Auto 模式下每秒调用一次。
  1642                              ; 输出: R_RFAutoSwitchTm 递减到 0 时切到下一显示通道。
  1643                              ; 调试: 看 R_RFStatus 的 D_RFCycleMode、R_RFAutoSwitchTm、R_RFViewChannel。
  1644 00000292                     F_RF_ServiceAutoView:			; Auto 模式下每 4 秒轮显一个户外通道
  1645 00000292 AD 00 00            		LDA		R_KeyValue
  1646 00000295 0D 00 00            		ORA		R_OldKeyValue
  1647 00000298 D0 50               		BNE		RF_ServiceAutoView_End
  1648 0000029A AD 00 00            		LDA		R_RFStatus
  1649 0000029D 29 02               		AND		#D_RFCycleMode
  1650 0000029F F0 49               		BEQ		RF_ServiceAutoView_End
  1651 000002A1 AD 05 00            		LDA		R_RFAutoSwitchTm
  1652 000002A4 F0 08               		BEQ		RF_AutoSwitchReload
  1653 000002A6 38                  		SEC
  1654 000002A7 E9 01               		SBC		#01H
  1655 000002A9 8D 05 00            		STA		R_RFAutoSwitchTm
  1656 000002AC D0 3C               		BNE		RF_ServiceAutoView_End
  1657 000002AE                     RF_AutoSwitchReload:
  1658                              		; 计时到点后先重装 4 秒，再切下一个显示通道。
  1659 000002AE A9 04               		LDA		#C_RFAutoSwitch4Sec
  1660 000002B0 8D 05 00            		STA		R_RFAutoSwitchTm
  1661 000002B3 AD 02 00            		LDA		R_RFViewChannel
  1662 000002B6 C9 01               		CMP		#D_RFCh1
  1663 000002B8 F0 07               		BEQ		RF_AutoToCh2
  1664 000002BA C9 02               		CMP		#D_RFCh2
  1665 000002BC F0 11               		BEQ		RF_AutoToCh3
  1666 000002BE 4C DD 02            		JMP		RF_AutoToCh1
  1667 000002C1                     RF_AutoToCh2:
  1668 000002C1 A9 02               		LDA		#D_RFCh2
  1669 000002C3 8D 02 00            		STA		R_RFViewChannel
  1670                              		%bits	R_TimeStatus,AddOthers
  1671 000002C6 AD 00 00          1           lda     R_TimeStatus               ;ex.  
  1672 000002C9 09 10             1           ora     #AddOthers              ;  %bits 10H,_BIT0
  1673                            1 		                   ;  10H.0=1
  1674 000002CB 8D 00 00          1           sta     R_TimeStatus               ;
  1675 000002CE 60                  		RTS
  1676 000002CF                     RF_AutoToCh3:
  1677 000002CF A9 03               		LDA		#D_RFCh3
  1678 000002D1 8D 02 00            		STA		R_RFViewChannel
  1679                              		%bits	R_TimeStatus,AddOthers
  1680 000002D4 AD 00 00          1           lda     R_TimeStatus               ;ex.  
  1681 000002D7 09 10             1           ora     #AddOthers              ;  %bits 10H,_BIT0
  1682                            1 		                   ;  10H.0=1
  1683 000002D9 8D 00 00          1           sta     R_TimeStatus               ;
  1684 000002DC 60                  		RTS
  1685                              
  1686 000002DD                     RF_AutoToCh1:
  1687 000002DD A9 01               		LDA		#D_RFCh1
  1688 000002DF 8D 02 00            		STA		R_RFViewChannel
  1689                              		%bits	R_TimeStatus,AddOthers
  1690 000002E2 AD 00 00          1           lda     R_TimeStatus               ;ex.  
  1691 000002E5 09 10             1           ora     #AddOthers              ;  %bits 10H,_BIT0
  1692                            1 		                   ;  10H.0=1
  1693 000002E7 8D 00 00          1           sta     R_TimeStatus               ;
  1694 000002EA                     RF_ServiceAutoView_End:
  1695 000002EA 60                  		RTS
  1696                              
  1697                              ; 输入: 当前是否处于 D_RFRecvBusy。
  1698                              ; 输出: 接收窗口按 0.5 秒单位倒计时，到 0 直接走 F_RF_OnReceiveFail。
  1699                              ; 调试: 开窗后盯 R_RFRecvWindowTm，从 4 递减到 0 的过程最直观。
  1700 000002EB                     F_RF_ServiceReceiveWindow:		; 接收窗口倒计时，超时即按一次失败处理
  1701 000002EB AD 00 00            		LDA		R_RFStatus
  1702 000002EE 29 08               		AND		#D_RFRecvBusy
  1703 000002F0 F0 10               		BEQ		RF_ServiceReceiveWindow_End
  1704 000002F2 AD 06 00            		LDA		R_RFRecvWindowTm
  1705 000002F5 F0 08               		BEQ		RF_ServiceReceiveWindow_Fail
  1706 000002F7 38                  		SEC
  1707 000002F8 E9 01               		SBC		#01H
  1708 000002FA 8D 06 00            		STA		R_RFRecvWindowTm
  1709 000002FD D0 03               		BNE		RF_ServiceReceiveWindow_End
  1710 000002FF                     RF_ServiceReceiveWindow_Fail:
  1711 000002FF 20 22 02            		JSR		F_RF_OnReceiveFail
  1712 00000302                     RF_ServiceReceiveWindow_End:
  1713 00000302 60                  		RTS
  1714                              
  1715                              ; 输入: 无。
  1716                              ; 输出: 顺序推进 CH1/CH2/CH3 三个同步倒计时。
  1717                              ; 调试: 看 R_RF1SyncTm~R_RF3SyncTm 是否每 0.5 秒递减或保持 FF。
  1718 00000303                     F_RF_ServiceSyncTimers:			; 统一推进 CH1/CH2/CH3 的同步倒计时
  1719 00000303 20 2E 03            		JSR		F_RF_ServiceChannel1Sync
  1720 00000306 20 35 03            		JSR		F_RF_ServiceChannel2Sync
  1721 00000309 20 3C 03            		JSR		F_RF_ServiceChannel3Sync
  1722 0000030C                     RF_ServiceSyncTimers_End:
  1723 0000030C 60                  		RTS
  1724                              
  1725                              ; 输入: A=通道号，Y=对应 SyncTm 偏移(0/1/2)。
  1726                              ; 输出: SyncTm 在非 FF/0 时递减，到点后若当前空闲则请求该通道同步接收。
  1727                              ; 调试: 看 R_RF1SyncTm,Y 递减到 0 时，R_RFRequestChannel 是否切到 A 指定的通道。
  1728 0000030D                     F_RF_ServiceSelectedChannelSync:
  1729 0000030D 48                  		PHA
  1730 0000030E B9 07 00            		LDA		R_RF1SyncTm,Y
  1731 00000311 C9 FF               		CMP		#C_RFSyncIdle
  1732 00000313 F0 17               		BEQ		RF_ServiceSelectedChannelSync_End
  1733 00000315 C9 00               		CMP		#00H
  1734 00000317 F0 08               		BEQ		RF_RequestSelectedChannelSync
  1735 00000319 38                  		SEC
  1736 0000031A E9 01               		SBC		#01H
  1737 0000031C 99 07 00            		STA		R_RF1SyncTm,Y
  1738 0000031F D0 0B               		BNE		RF_ServiceSelectedChannelSync_End
  1739 00000321                     RF_RequestSelectedChannelSync:
  1740 00000321 AD 00 00            		LDA		R_RFStatus
  1741 00000324 29 09               		AND		#(D_RFRecvBusy+D_RFLongRecv)
  1742 00000326 D0 04               		BNE		RF_ServiceSelectedChannelSync_End
  1743 00000328 68                  		PLA
  1744 00000329 4C 43 03            		JMP		F_RF_RequestSync
  1745                              
  1746 0000032C                     RF_ServiceSelectedChannelSync_End:
  1747 0000032C 68                  		PLA
  1748 0000032D 60                  		RTS
  1749                              
  1750                              ; 输入: CH1 的同步倒计时 R_RF1SyncTm。
  1751                              ; 输出: 计时从非 FF 递减到 0 后，如果当前空闲，就请求一次 CH1 同步接收。
  1752                              ; 调试: 看 R_RF1SyncTm 递减到 0 时，R_RFRequestChannel 是否切到 CH1。
  1753 0000032E                     F_RF_ServiceChannel1Sync:		; 维护 CH1 的同步定时，到点后发起接收
  1754 0000032E A9 01               		LDA		#D_RFCh1
  1755 00000330 A0 00               		LDY		#00H
  1756 00000332 4C 0D 03            		JMP		F_RF_ServiceSelectedChannelSync
  1757                              
  1758                              ; 输入/输出与 CH1 同步入口相同，只是对象换成 CH2。
  1759                              ; 调试: 看 R_RF2SyncTm、R_RFRequestChannel。
  1760 00000335                     F_RF_ServiceChannel2Sync:		; 维护 CH2 的同步定时，到点后发起接收
  1761 00000335 A9 02               		LDA		#D_RFCh2
  1762 00000337 A0 01               		LDY		#01H
  1763 00000339 4C 0D 03            		JMP		F_RF_ServiceSelectedChannelSync
  1764                              
  1765                              ; 输入/输出与 CH1 同步入口相同，只是对象换成 CH3。
  1766                              ; 调试: 看 R_RF3SyncTm、R_RFRequestChannel。
  1767 0000033C                     F_RF_ServiceChannel3Sync:		; 维护 CH3 的同步定时，到点后发起接收
  1768 0000033C A9 03               		LDA		#D_RFCh3
  1769 0000033E A0 02               		LDY		#02H
  1770 00000340 4C 0D 03            		JMP		F_RF_ServiceSelectedChannelSync
  1771                              
  1772                              ; 输入: A=请求通道号。
  1773                              ; 输出: 记录当前请求通道、重装同步周期、清双帧缓存、开启 2 秒接收窗口并拉低 PD0。
  1774                              ; 调试: 开窗点先看 R_RFRequestChannel、R_RFRecvWindowTm、R_RFStatus。
  1775 00000343                     F_RF_RequestSync:			; 发起指定通道的一次同步接收窗口
  1776 00000343 8D 03 00            		STA		R_RFRequestChannel
  1777                              		; 这里先重装“下一个”同步周期，这样即使本次窗口失败也不会丢节拍。
  1778 00000346 20 97 03            		JSR		F_RF_ReloadRequestChannelSync
  1779                              		; 新窗口开始前要清 pending，避免把上次窗口残留帧拿来比较。
  1780 00000349 20 4A 04            		JSR		F_RF_ClearPendingFrame
  1781                              		; 同时清当前半截包，避免上个窗口没收完的 BIT 串到这次窗口。
  1782 0000034C 20 ED 04            		JSR		F_RF_ResetPacketBuffer
  1783 0000034F A9 04               		LDA		#C_RFRecvWindow2SecTick
  1784 00000351 8D 06 00            		STA		R_RFRecvWindowTm
  1785 00000354 AD 00 00            		LDA		R_RFStatus
  1786 00000357 09 0C               		ORA		#(D_RFNeedSync+D_RFRecvBusy)
  1787 00000359 8D 00 00            		STA		R_RFStatus
  1788 0000035C 20 68 03            		JSR		F_RF_UpdateReceiverEnable
  1789                              		%bits	R_TimeStatus,AddOthers
  1790 0000035F AD 00 00          1           lda     R_TimeStatus               ;ex.  
  1791 00000362 09 10             1           ora     #AddOthers              ;  %bits 10H,_BIT0
  1792                            1 		                   ;  10H.0=1
  1793 00000364 8D 00 00          1           sta     R_TimeStatus               ;
  1794 00000367 60                  		RTS
  1795                              
  1796                              ; 输入: R_RFStatus 的 LongRecv/RecvBusy。
  1797                              ; 输出: 只要任一接收态成立，PD0 就拉低使能 RF；否则拉高关闭。
  1798                              ; 调试: 看 R_PortD_Data_Buf bit0 和外部 PD0 实际电平。
  1799 00000368                     F_RF_UpdateReceiverEnable:		; PD0=RF_EN，低有效；PD1 保持输入浮空收码
  1800 00000368 AD 00 00            		LDA		P_IOD_DIR_Map
  1801 0000036B 09 01               		ORA		#D_Bit0
  1802 0000036D 8D 00 00            		STA		P_IOD_DIR_Map
  1803 00000370 85 11               		STA		P_IO_PortD_Dir
  1804 00000372 AD 00 00            		LDA		R_PortD_Data_Buf
  1805 00000375 09 02               		ORA		#D_Bit1
  1806 00000377 8D 00 00            		STA		R_PortD_Data_Buf
  1807 0000037A AD 00 00            		LDA		R_RFStatus
  1808 0000037D 29 09               		AND		#(D_RFLongRecv+D_RFRecvBusy)
  1809 0000037F F0 0B               		BEQ		RF_UpdateReceiverDisable
  1810 00000381 AD 00 00            		LDA		R_PortD_Data_Buf
  1811 00000384 29 FE               		AND		#(.NOT.(D_Bit0))
  1812 00000386 8D 00 00            		STA		R_PortD_Data_Buf
  1813 00000389 85 13               		STA		P_IO_PortD_Data
  1814 0000038B 60                  		RTS
  1815                              
  1816 0000038C                     RF_UpdateReceiverDisable:
  1817 0000038C AD 00 00            		LDA		R_PortD_Data_Buf
  1818 0000038F 09 01               		ORA		#D_Bit0
  1819 00000391 8D 00 00            		STA		R_PortD_Data_Buf
  1820 00000394 85 13               		STA		P_IO_PortD_Data
  1821 00000396 60                  		RTS
  1822                              
  1823                              ; 输入: R_RFRequestChannel。
  1824                              ; 输出: 按当前请求通道选择 57/67/79 秒常规同步周期。
  1825                              ; 调试: 看请求通道变化后，哪一路 SyncTm 被重新装载。
  1826 00000397                     F_RF_ReloadRequestChannelSync:		; 按当前请求通道重装常规同步周期
  1827 00000397 AD 03 00            		LDA		R_RFRequestChannel
  1828 0000039A C9 02               		CMP		#D_RFCh2
  1829 0000039C F0 07               		BEQ		RF_ReloadRequestChannel2Sync
  1830 0000039E C9 03               		CMP		#D_RFCh3
  1831 000003A0 F0 06               		BEQ		RF_ReloadRequestChannel3Sync
  1832 000003A2 4C C8 03            		JMP		F_RF_ReloadChannel1Sync
  1833                              
  1834 000003A5                     RF_ReloadRequestChannel2Sync:
  1835 000003A5 4C CE 03            		JMP		F_RF_ReloadChannel2Sync
  1836                              
  1837 000003A8                     RF_ReloadRequestChannel3Sync:
  1838 000003A8 4C D4 03            		JMP		F_RF_ReloadChannel3Sync
  1839                              
  1840                              ; 输入: R_RFRequestChannel。
  1841                              ; 输出: 首次配对成功后，把该通道同步点装到“完整周期 - 2 秒提前量”。
  1842                              ; 调试: 长接收首次配对成功后，看对应 SyncTm 是否被写成周期减 4 tick。
  1843 000003AB                     F_RF_LoadRequestChannelFirstSync:	; 首次配对成功后装载“周期-2秒提前量”的下次同步点
  1844 000003AB AD 03 00            		LDA		R_RFRequestChannel
  1845 000003AE C9 02               		CMP		#D_RFCh2
  1846 000003B0 F0 0A               		BEQ		RF_LoadRequestChannel2FirstSync
  1847 000003B2 C9 03               		CMP		#D_RFCh3
  1848 000003B4 F0 0C               		BEQ		RF_LoadRequestChannel3FirstSync
  1849 000003B6 A9 6E               		LDA		#C_RFCh1Sync57Tick-C_RFSyncAdvance2SecTick
  1850 000003B8 8D 07 00            		STA		R_RF1SyncTm
  1851 000003BB 60                  		RTS
  1852                              
  1853 000003BC                     RF_LoadRequestChannel2FirstSync:
  1854 000003BC A9 82               		LDA		#C_RFCh2Sync67Tick-C_RFSyncAdvance2SecTick
  1855 000003BE 8D 08 00            		STA		R_RF2SyncTm
  1856 000003C1 60                  		RTS
  1857                              
  1858 000003C2                     RF_LoadRequestChannel3FirstSync:
  1859 000003C2 A9 9A               		LDA		#C_RFCh3Sync79Tick-C_RFSyncAdvance2SecTick
  1860 000003C4 8D 09 00            		STA		R_RF3SyncTm
  1861 000003C7 60                  		RTS
  1862                              
  1863                              ; 这三个函数只负责把常规同步周期常量写回各自的 SyncTm。
  1864                              ; 调试: 看 R_RF1SyncTm / R_RF2SyncTm / R_RF3SyncTm 是否分别变成 114 / 134 / 158。
  1865 000003C8                     F_RF_ReloadChannel1Sync:		; 重装 CH1 的 57 秒常规同步周期
  1866 000003C8 A9 72               		LDA		#C_RFCh1Sync57Tick
  1867 000003CA 8D 07 00            		STA		R_RF1SyncTm
  1868 000003CD 60                  		RTS
  1869                              
  1870 000003CE                     F_RF_ReloadChannel2Sync:		; 重装 CH2 的 67 秒常规同步周期
  1871 000003CE A9 86               		LDA		#C_RFCh2Sync67Tick
  1872 000003D0 8D 08 00            		STA		R_RF2SyncTm
  1873 000003D3 60                  		RTS
  1874                              
  1875 000003D4                     F_RF_ReloadChannel3Sync:		; 重装 CH3 的 79 秒常规同步周期
  1876 000003D4 A9 9E               		LDA		#C_RFCh3Sync79Tick
  1877 000003D6 8D 09 00            		STA		R_RF3SyncTm
  1878 000003D9 60                  		RTS
  1879                              
  1880                              ;		旧的按请求通道分拆 Valid/Lost 入口已合并到
  1881                              ;		F_RF_SetSelectedChannelValid / F_RF_SetSelectedChannelLost，
  1882                              ;		不再保留 6 份完全重复的代码块。
  1883                              
  1884                              ; 这三个函数只是给通用分钟状态机装不同的 X/Y 偏移。
  1885                              ; 调试: 看 X/Y 是否落在 0/0、0Ah/01h、14h/02h。
  1886 000003DA                     F_RF_ServiceChannel1Minute:		; 按分钟累计 CH1 掉码时长并触发 60/120/180 分钟策略
  1887 000003DA A2 00               		LDX		#00H
  1888 000003DC A0 00               		LDY		#00H
  1889 000003DE 4C EF 03            		JMP		F_RF_ServiceSelectedChannelMinute
  1890                              
  1891 000003E1                     F_RF_ServiceChannel2Minute:		; 按分钟累计 CH2 掉码时长并触发 60/120/180 分钟策略
  1892 000003E1 A2 0A               		LDX		#0AH
  1893 000003E3 A0 01               		LDY		#01H
  1894 000003E5 4C EF 03            		JMP		F_RF_ServiceSelectedChannelMinute
  1895                              
  1896 000003E8                     F_RF_ServiceChannel3Minute:		; 按分钟累计 CH3 掉码时长并触发 60/120/180 分钟策略
  1897 000003E8 A2 14               		LDX		#14H
  1898 000003EA A0 02               		LDY		#02H
  1899                              		; 60 分钟先触发一次 3 分钟长接收；120 分钟后改成 3 小时节拍重复尝试。
  1900 000003EC 4C EF 03            		JMP		F_RF_ServiceSelectedChannelMinute
  1901                              
  1902                              ; 输入: X=通道数据偏移，Y=同步计时偏移。
  1903                              ; 输出: LostCnt 非 0 时按分钟累计 MissMin，并在 60/120/180 分钟点切换重试阶段或重启长接收。
  1904                              ; 调试: 重点看 MissMin、RetryStage、RetryTm、对应 SyncTm。
  1905 000003EF                     F_RF_ServiceSelectedChannelMinute:	; X=通道记录偏移(0/10/20), Y=同步计时偏移(0/1/2)
  1906 000003EF BD 23 00            		LDA		R_RF1LostCnt,X
  1907                              		; LostCnt 为 0 说明这一路没有掉码，不需要累计分钟数。
  1908 000003F2 F0 1C               		BEQ		RF_ServiceSelectedChannelMinute_End
  1909 000003F4 BD 25 00            		LDA		R_RF1RetryStage,X
  1910 000003F7 C9 03               		CMP		#C_RFFinalRetryStage
  1911 000003F9 B0 15               		BCS		RF_ServiceSelectedChannelMinute_End
  1912                              		; RetryStage=2 后不再走 60/120 分钟判断，而是改成每 180 分钟重试一次。
  1913 000003FB C9 02               		CMP		#02H
  1914 000003FD F0 31               		BEQ		RF_ServiceSelectedChannelRetry180
  1915 000003FF BD 24 00            		LDA		R_RF1MissMin,X
  1916 00000402 18                  		CLC
  1917 00000403 69 01               		ADC		#01H
  1918 00000405 9D 24 00            		STA		R_RF1MissMin,X
  1919 00000408 C9 3C               		CMP		#C_RFFail60Min
  1920 0000040A F0 05               		BEQ		RF_SelectedChannelEnter60MinLongRecv
  1921 0000040C C9 78               		CMP		#C_RFFail120Min
  1922 0000040E F0 0E               		BEQ		RF_SelectedChannelEnter120MinLongRecv
  1923 00000410                     RF_ServiceSelectedChannelMinute_End:
  1924 00000410 60                  		RTS
  1925                              
  1926 00000411                     RF_SelectedChannelEnter60MinLongRecv:
  1927                              		; 第一次累计到 60 分钟，先拉起一次 3 分钟长接收尝试找回信号。
  1928 00000411 A9 01               		LDA		#01H
  1929 00000413 9D 25 00            		STA		R_RF1RetryStage,X
  1930 00000416 A9 FF               		LDA		#C_RFSyncIdle
  1931 00000418 99 07 00            		STA		R_RF1SyncTm,Y
  1932 0000041B 4C ED 00            		JMP		F_RF_StartLongReceive
  1933                              
  1934 0000041E                     RF_SelectedChannelEnter120MinLongRecv:
  1935                              		; 到 120 分钟后切到 stage2。这里先预装 183 分钟，
  1936                              		; 因为马上会进入 3 分钟长接收，超时后正好还剩完整 180 分钟等待下一次重试。
  1937 0000041E A9 02               		LDA		#02H
  1938 00000420 9D 25 00            		STA		R_RF1RetryStage,X
  1939 00000423 A9 B7               		LDA		#C_RFFailRetry183Min
  1940 00000425 9D 26 00            		STA		R_RF1RetryTm,X
  1941 00000428 A9 FF               		LDA		#C_RFSyncIdle
  1942 0000042A 99 07 00            		STA		R_RF1SyncTm,Y
  1943 0000042D 4C ED 00            		JMP		F_RF_StartLongReceive
  1944                              
  1945 00000430                     RF_ServiceSelectedChannelRetry180:
  1946 00000430 BD 26 00            		LDA		R_RF1RetryTm,X
  1947 00000433 F0 08               		BEQ		RF_SelectedChannelRetryLongRecv
  1948 00000435 38                  		SEC
  1949 00000436 E9 01               		SBC		#01H
  1950 00000438 9D 26 00            		STA		R_RF1RetryTm,X
  1951 0000043B D0 D3               		BNE		RF_ServiceSelectedChannelMinute_End
  1952 0000043D                     RF_SelectedChannelRetryLongRecv:
  1953                              		; 120 分钟后的 180 分钟重试只再触发一次；如果这次仍收不到，
  1954                              		; stage 置到 final，后续就不再自动打开长接收，保留手动 CH 清配入口。
  1955 0000043D A9 03               		LDA		#C_RFFinalRetryStage
  1956 0000043F 9D 25 00            		STA		R_RF1RetryStage,X
  1957 00000442 A9 00               		LDA		#00H
  1958 00000444 9D 26 00            		STA		R_RF1RetryTm,X
  1959 00000447 4C ED 00            		JMP		F_RF_StartLongReceive
  1960                              
  1961                              ; 输入: 无。
  1962                              ; 输出: 仅清掉 pending 有效标志，让下一帧重新成为“第一帧”。
  1963                              ; 调试: 盯 R_RFPendingValid。
  1964 0000044A                     F_RF_ClearPendingFrame:			; 清空双帧确认缓存状态
  1965 0000044A A9 00               		LDA		#00H
  1966 0000044C 8D 11 00            		STA		R_RFPendingValid
  1967 0000044F 60                  		RTS
  1968                              
  1969                              ; 输入: 当前帧 R_RFPacket0~4。
  1970                              ; 输出: 把当前帧拷到 pending 缓存，供下一帧做完全一致比较。
  1971                              ; 调试: 盯 R_RFPending0~4。
  1972 00000450                     F_RF_SavePendingFrame:			; 保存当前帧，供下一帧做完全一致比对
  1973 00000450 AD 0B 00            		LDA		R_RFPacket0
  1974 00000453 8D 12 00            		STA		R_RFPending0
  1975 00000456 AD 0C 00            		LDA		R_RFPacket1
  1976 00000459 8D 13 00            		STA		R_RFPending1
  1977 0000045C AD 0D 00            		LDA		R_RFPacket2
  1978 0000045F 8D 14 00            		STA		R_RFPending2
  1979 00000462 AD 0E 00            		LDA		R_RFPacket3
  1980 00000465 8D 15 00            		STA		R_RFPending3
  1981 00000468 AD 0F 00            		LDA		R_RFPacket4
  1982 0000046B 8D 16 00            		STA		R_RFPending4
  1983 0000046E A9 01               		LDA		#01H
  1984 00000470 8D 11 00            		STA		R_RFPendingValid
  1985 00000473 60                  		RTS
  1986                              
  1987                              ; 输入: 当前帧和 pending 帧。
  1988                              ; 输出: SEC=两帧完全一致，CLC=不一致或这是第一帧。
  1989                              ; 调试: 重点对比 R_RFPacket0~4 和 R_RFPending0~4。
  1990 00000474                     F_RF_IsCurrentFrameConfirmed:		; 判断当前帧是否和上一帧完全一致
  1991                              		; 发射端会连续重复发同一帧，接收端必须连续两帧完全一致才允许后续落库。
  1992 00000474 AD 11 00            		LDA		R_RFPendingValid
  1993                              		; 还没有 pending 时，当前帧只保存，不算确认成功。
  1994 00000477 D0 05               		BNE		RF_CheckPendingFrame
  1995 00000479 20 50 04            		JSR		F_RF_SavePendingFrame
  1996 0000047C 18                  		CLC
  1997 0000047D 60                  		RTS
  1998                              
  1999 0000047E                     RF_CheckPendingFrame:
  2000                              		; 五个 Packet 字节必须全等，任何一字节不同都把当前帧改写成新的 pending。
  2001 0000047E AD 0B 00            		LDA		R_RFPacket0
  2002 00000481 CD 12 00            		CMP		R_RFPending0
  2003 00000484 D0 22               		BNE		RF_SaveCurrentAsPending
  2004 00000486 AD 0C 00            		LDA		R_RFPacket1
  2005 00000489 CD 13 00            		CMP		R_RFPending1
  2006 0000048C D0 1A               		BNE		RF_SaveCurrentAsPending
  2007 0000048E AD 0D 00            		LDA		R_RFPacket2
  2008 00000491 CD 14 00            		CMP		R_RFPending2
  2009 00000494 D0 12               		BNE		RF_SaveCurrentAsPending
  2010 00000496 AD 0E 00            		LDA		R_RFPacket3
  2011 00000499 CD 15 00            		CMP		R_RFPending3
  2012 0000049C D0 0A               		BNE		RF_SaveCurrentAsPending
  2013 0000049E AD 0F 00            		LDA		R_RFPacket4
  2014 000004A1 CD 16 00            		CMP		R_RFPending4
  2015 000004A4 D0 02               		BNE		RF_SaveCurrentAsPending
  2016 000004A6 38                  		SEC
  2017 000004A7 60                  		RTS
  2018                              
  2019 000004A8                     RF_SaveCurrentAsPending:
  2020                              		; 连续帧不一致，说明当前帧不能用，但它可能是新一轮重复帧的第一帧。
  2021 000004A8 20 50 04            		JSR		F_RF_SavePendingFrame
  2022 000004AB 18                  		CLC
  2023 000004AC 60                  		RTS
  2024                              
  2025                              ; 输入: R_RFRequestChannel 和当前帧里的 Packet0(ID)。
  2026                              ; 输出: SEC=允许写入该通道，CLC=拒绝；已配对通道只接受相同 ID。
  2027                              ; 调试: 看 R_RFRequestChannel、对应通道 Flags 的 NeedPair 位、对应通道 IdL。
  2028 000004AD                     F_RF_IsRequestChannelPacketAccepted:	; 判断当前包是否允许写入请求通道
  2029                              		; 只有 NeedPair 通道允许接收新 ID；已配对通道必须同 ID 才能恢复或更新。
  2030 000004AD AD 03 00            		LDA		R_RFRequestChannel
  2031 000004B0 C9 02               		CMP		#D_RFCh2
  2032 000004B2 F0 15               		BEQ		RF_IsChannel2PacketAccepted
  2033 000004B4 C9 03               		CMP		#D_RFCh3
  2034 000004B6 F0 22               		BEQ		RF_IsChannel3PacketAccepted
  2035                              
  2036 000004B8                     RF_IsChannel1PacketAccepted:
  2037 000004B8 AD 1D 00            		LDA		R_RF1Flags
  2038 000004BB 29 08               		AND		#D_RFNeedPair
  2039                              		; NeedPair 说明 CH1 还没绑定过 ID，当前包直接允许写入。
  2040 000004BD D0 2C               		BNE		RF_RequestChannelPacketAccept
  2041 000004BF AD 0B 00            		LDA		R_RFPacket0
  2042 000004C2 CD 1F 00            		CMP		R_RF1IdL
  2043                              		; 已配对后只有 ID 一致才允许恢复/更新该通道。
  2044 000004C5 F0 24               		BEQ		RF_RequestChannelPacketAccept
  2045 000004C7 18                  		CLC
  2046 000004C8 60                  		RTS
  2047                              
  2048 000004C9                     RF_IsChannel2PacketAccepted:
  2049 000004C9 AD 27 00            		LDA		R_RF2Flags
  2050 000004CC 29 08               		AND		#D_RFNeedPair
  2051 000004CE D0 1B               		BNE		RF_RequestChannelPacketAccept
  2052 000004D0 AD 0B 00            		LDA		R_RFPacket0
  2053 000004D3 CD 29 00            		CMP		R_RF2IdL
  2054 000004D6 F0 13               		BEQ		RF_RequestChannelPacketAccept
  2055 000004D8 18                  		CLC
  2056 000004D9 60                  		RTS
  2057                              
  2058 000004DA                     RF_IsChannel3PacketAccepted:
  2059 000004DA AD 31 00            		LDA		R_RF3Flags
  2060 000004DD 29 08               		AND		#D_RFNeedPair
  2061 000004DF D0 0A               		BNE		RF_RequestChannelPacketAccept
  2062 000004E1 AD 0B 00            		LDA		R_RFPacket0
  2063 000004E4 CD 33 00            		CMP		R_RF3IdL
  2064 000004E7 F0 02               		BEQ		RF_RequestChannelPacketAccept
  2065 000004E9 18                  		CLC
  2066 000004EA 60                  		RTS
  2067                              
  2068 000004EB                     RF_RequestChannelPacketAccept:
  2069 000004EB 38                  		SEC
  2070 000004EC 60                  		RTS
  2071                              
  2072                              ; 输入: 无。
  2073                              ; 输出: 清当前帧缓存和 CaptureActive，准备重新从停止位开始抓数。
  2074                              ; 调试: 看 R_RFBitCnt 是否回 0，R_RFCaptureActive 是否清零。
  2075 000004ED                     F_RF_ResetPacketBuffer:			; 清当前 36bit 收包缓存，不动双帧 pending 缓存
  2076 000004ED A9 00               		LDA		#00H
  2077 000004EF 8D 0A 00            		STA		R_RFBitCnt
  2078 000004F2 8D 17 00            		STA		R_RFCaptureActive
  2079 000004F5 8D 0B 00            		STA		R_RFPacket0
  2080 000004F8 8D 0C 00            		STA		R_RFPacket1
  2081 000004FB 8D 0D 00            		STA		R_RFPacket2
  2082 000004FE 8D 0E 00            		STA		R_RFPacket3
  2083 00000501 8D 0F 00            		STA		R_RFPacket4
  2084 00000504 8D 10 00            		STA		R_RFPacket5
  2085 00000507 60                  		RTS
  2086                              
  2087                              ; 输入: 当前收到一个 bit0。
  2088                              ; 输出: 仅递增 R_RFBitCnt，因为 bit0 在缓存里天然就是 0。
  2089                              ; 调试: 看 R_RFBitCnt 是否递增但 Packet0~4 不变。
  2090 00000508                     F_RF_AppendBit0:			; Bit0 只需要推进位计数，因为 Packet 缓冲默认就是 0
  2091 00000508 AD 0A 00            		LDA		R_RFBitCnt
  2092 0000050B C9 24               		CMP		#C_RFPacketBits36
  2093 0000050D B0 5F               		BCS		RF_AppendBit_End
  2094 0000050F EE 0A 00            		INC		R_RFBitCnt
  2095 00000512 60                  		RTS
  2096                              
  2097                              ; 输入: 当前收到一个 bit1。
  2098                              ; 输出: 按 bit 序号把 1 写到 Packet0~4 中的目标位，再递增 bit 计数。
  2099                              ; 调试: 看 R_RFBitCnt 和对应 Packet 字节的某一位是否被置 1。
  2100 00000513                     F_RF_AppendBit1:			; Bit1 要按当前 bit 序号写入 Packet0~4 的目标位
  2101 00000513 AD 0A 00            		LDA		R_RFBitCnt
  2102 00000516 C9 24               		CMP		#C_RFPacketBits36
  2103 00000518 B0 54               		BCS		RF_AppendBit_End
  2104 0000051A C9 08               		CMP		#08H
  2105 0000051C 90 0F               		BCC		RF_AppendPacket0
  2106 0000051E C9 10               		CMP		#10H
  2107 00000520 90 14               		BCC		RF_AppendPacket1
  2108 00000522 C9 18               		CMP		#18H
  2109 00000524 90 1E               		BCC		RF_AppendPacket2
  2110 00000526 C9 20               		CMP		#20H
  2111 00000528 90 28               		BCC		RF_AppendPacket3
  2112 0000052A 4C 60 05            		JMP		RF_AppendPacket4
  2113                              
  2114 0000052D                     RF_AppendPacket0:
  2115 0000052D AE 0A 00            		LDX		R_RFBitCnt
  2116 00000530 20 7F 06            		JSR		F_RF_SetBitInPacket0
  2117 00000533 4C 6B 05            		JMP		RF_AppendBit_Inc
  2118                              
  2119 00000536                     RF_AppendPacket1:
  2120 00000536 AE 0A 00            		LDX		R_RFBitCnt
  2121 00000539 8A                  		TXA
  2122 0000053A 38                  		SEC
  2123 0000053B E9 08               		SBC		#08H
  2124 0000053D AA                  		TAX
  2125 0000053E 20 89 06            		JSR		F_RF_SetBitInPacket1
  2126 00000541 4C 6B 05            		JMP		RF_AppendBit_Inc
  2127                              
  2128 00000544                     RF_AppendPacket2:
  2129 00000544 AE 0A 00            		LDX		R_RFBitCnt
  2130 00000547 8A                  		TXA
  2131 00000548 38                  		SEC
  2132 00000549 E9 10               		SBC		#10H
  2133 0000054B AA                  		TAX
  2134 0000054C 20 93 06            		JSR		F_RF_SetBitInPacket2
  2135 0000054F 4C 6B 05            		JMP		RF_AppendBit_Inc
  2136                              
  2137 00000552                     RF_AppendPacket3:
  2138 00000552 AE 0A 00            		LDX		R_RFBitCnt
  2139 00000555 8A                  		TXA
  2140 00000556 38                  		SEC
  2141 00000557 E9 18               		SBC		#18H
  2142 00000559 AA                  		TAX
  2143 0000055A 20 9D 06            		JSR		F_RF_SetBitInPacket3
  2144 0000055D 4C 6B 05            		JMP		RF_AppendBit_Inc
  2145                              
  2146 00000560                     RF_AppendPacket4:
  2147 00000560 AE 0A 00            		LDX		R_RFBitCnt
  2148 00000563 8A                  		TXA
  2149 00000564 38                  		SEC
  2150 00000565 E9 20               		SBC		#20H
  2151 00000567 AA                  		TAX
  2152 00000568 20 A7 06            		JSR		F_RF_SetBitInPacket4
  2153                              
  2154 0000056B                     RF_AppendBit_Inc:
  2155 0000056B EE 0A 00            		INC		R_RFBitCnt
  2156                              
  2157 0000056E                     RF_AppendBit_End:
  2158 0000056E 60                  		RTS
  2159                              
  2160                              ; 输入 A = 一次连续低电平的宽度，单位 50us/tick。
  2161                              ; 调试先看 R_RFPulseTicks / R_RFCaptureActive / R_RFBitCnt / R_RFPacket0~4。
  2162 0000056F                     F_RF_FeedLowPulseTicks:		; 先认 4~5ms 停止位作为起帧锚点，再把后续低脉宽翻成 36bit 数据
  2163 0000056F 8D 18 00            		STA		R_RFPulseTicks
  2164                              		; 停止位既是上一帧的结尾，也是下一帧开始抓数的锚点；前导码全部忽略。
  2165 00000572 C9 50               		CMP		#C_RFStopLowMinTick
  2166 00000574 90 04               		BCC		RF_FeedLowPulse_CheckCapture
  2167 00000576 C9 65               		CMP		#C_RFStopLowMaxTick+1
  2168 00000578 90 1C               		BCC		RF_FeedLowPulse_StartFrame
  2169                              
  2170 0000057A                     RF_FeedLowPulse_CheckCapture:
  2171                              		; 只有已经见过停止位时，后面的 1ms/2ms 低脉宽才会被当成数据位。
  2172 0000057A AD 17 00            		LDA		R_RFCaptureActive
  2173 0000057D F0 33               		BEQ		RF_FeedLowPulse_End
  2174 0000057F AD 18 00            		LDA		R_RFPulseTicks
  2175 00000582 C9 14               		CMP		#C_RFBit1LowMinTick
  2176 00000584 90 0C               		BCC		RF_FeedLowPulse_Invalid
  2177 00000586 C9 24               		CMP		#C_RFBit1LowMaxTick+1
  2178 00000588 90 15               		BCC		RF_FeedLowPulse_Bit1
  2179 0000058A C9 28               		CMP		#C_RFBit0LowMinTick
  2180 0000058C 90 04               		BCC		RF_FeedLowPulse_Invalid
  2181 0000058E C9 38               		CMP		#C_RFBit0LowMaxTick+1
  2182 00000590 90 13               		BCC		RF_FeedLowPulse_Bit0
  2183                              
  2184 00000592                     RF_FeedLowPulse_Invalid:
  2185                              		; 中途遇到非法低脉宽，整帧作废，等待下一次停止位重开。
  2186 00000592 20 ED 04            		JSR		F_RF_ResetPacketBuffer
  2187 00000595 60                  		RTS
  2188                              
  2189 00000596                     RF_FeedLowPulse_StartFrame:
  2190                              		; 锁定一帧新的数据，后续 bit 从 Packet0 的 bit7 开始依次写入。
  2191 00000596 20 ED 04            		JSR		F_RF_ResetPacketBuffer
  2192 00000599 A9 01               		LDA		#01H
  2193 0000059B 8D 17 00            		STA		R_RFCaptureActive
  2194 0000059E 60                  		RTS
  2195                              
  2196 0000059F                     RF_FeedLowPulse_Bit1:
  2197                              		; 1ms 低脉宽判成 bit1。
  2198 0000059F 20 13 05            		JSR		F_RF_AppendBit1
  2199 000005A2 4C A8 05            		JMP		RF_FeedLowPulse_AfterBit
  2200                              
  2201 000005A5                     RF_FeedLowPulse_Bit0:
  2202                              		; 2ms 低脉宽判成 bit0。
  2203 000005A5 20 08 05            		JSR		F_RF_AppendBit0
  2204                              
  2205 000005A8                     RF_FeedLowPulse_AfterBit:
  2206 000005A8 AD 0A 00            		LDA		R_RFBitCnt
  2207 000005AB C9 24               		CMP		#C_RFPacketBits36
  2208 000005AD 90 03               		BCC		RF_FeedLowPulse_End
  2209                              		; 满 36bit 后立刻转解包，避免继续吞掉后面重复发的同帧数据。
  2210 000005AF 4C 10 06            		JMP		F_RF_ParsePacket
  2211                              
  2212 000005B2                     RF_FeedLowPulse_End:
  2213 000005B2 60                  		RTS
  2214                              
  2215                              ; 调试先看 R_RFSamplePrev / R_RFLowSampleCnt；一次低电平结束后看 R_RFPulseTicks。
  2216 000005B3                     F_RF_Service2KHzSample:		; 2kHz 采样 PD1，把低电平样本数换算成 50us tick 后送入 F_RF_FeedLowPulseTicks
  2217 000005B3 AD 00 00            		LDA		R_RFStatus
  2218 000005B6 29 09               		AND		#(D_RFLongRecv+D_RFRecvBusy)
  2219 000005B8 D0 0D               		BNE		RF_Service2KHzSample_Active
  2220                              		; 未处于接收状态时只同步输入电平，不累计脉宽。
  2221 000005BA A5 13               		LDA		P_IO_PortD_Data
  2222 000005BC 29 02               		AND		#D_Bit1
  2223 000005BE 8D 19 00            		STA		R_RFSamplePrev
  2224 000005C1 A9 00               		LDA		#00H
  2225 000005C3 8D 1A 00            		STA		R_RFLowSampleCnt
  2226 000005C6 60                  		RTS
  2227                              
  2228 000005C7                     RF_Service2KHzSample_Active:
  2229 000005C7 A5 13               		LDA		P_IO_PortD_Data
  2230 000005C9 29 02               		AND		#D_Bit1
  2231                              		; PD1 为高时，如果上一拍也是高，就什么都不做；如果上一拍是低，就表示一段低脉冲结束了。
  2232 000005CB F0 0B               		BEQ		RF_Service2KHzSample_Low
  2233 000005CD AD 19 00            		LDA		R_RFSamplePrev
  2234 000005D0 F0 21               		BEQ		RF_Service2KHzSample_LowEnd
  2235 000005D2 A9 02               		LDA		#D_Bit1
  2236 000005D4 8D 19 00            		STA		R_RFSamplePrev
  2237 000005D7 60                  		RTS
  2238                              
  2239 000005D8                     RF_Service2KHzSample_Low:
  2240 000005D8 AD 19 00            		LDA		R_RFSamplePrev
  2241 000005DB F0 0B               		BEQ		RF_Service2KHzSample_LowHold
  2242                              		; 刚从高跳低，开始统计这段低电平持续了多少个 2kHz 样本。
  2243 000005DD A9 00               		LDA		#00H
  2244 000005DF 8D 19 00            		STA		R_RFSamplePrev
  2245 000005E2 A9 01               		LDA		#01H
  2246 000005E4 8D 1A 00            		STA		R_RFLowSampleCnt
  2247 000005E7 60                  		RTS
  2248                              
  2249 000005E8                     RF_Service2KHzSample_LowHold:
  2250 000005E8 AD 1A 00            		LDA		R_RFLowSampleCnt
  2251 000005EB C9 FE               		CMP		#0FEH
  2252                              		; 饱和保护，防止异常长低电平把计数溢出。
  2253 000005ED B0 03               		BCS		RF_Service2KHzSample_End
  2254 000005EF EE 1A 00            		INC		R_RFLowSampleCnt
  2255 000005F2                     RF_Service2KHzSample_End:
  2256 000005F2 60                  		RTS
  2257                              
  2258 000005F3                     RF_Service2KHzSample_LowEnd:
  2259 000005F3 A9 02               		LDA		#D_Bit1
  2260 000005F5 8D 19 00            		STA		R_RFSamplePrev
  2261 000005F8 AD 1A 00            		LDA		R_RFLowSampleCnt
  2262 000005FB F0 F5               		BEQ		RF_Service2KHzSample_End
  2263                              		; 2kHz 一个样本是 500us，这里乘以 10 换算成 50us tick。
  2264 000005FD 0A                  		ASL		A
  2265 000005FE 8D 18 00            		STA		R_RFPulseTicks
  2266 00000601 0A                  		ASL		A
  2267 00000602 0A                  		ASL		A
  2268 00000603 18                  		CLC
  2269 00000604 6D 18 00            		ADC		R_RFPulseTicks
  2270 00000607 20 6F 05            		JSR		F_RF_FeedLowPulseTicks
  2271 0000060A A9 00               		LDA		#00H
  2272 0000060C 8D 1A 00            		STA		R_RFLowSampleCnt
  2273 0000060F 60                  		RTS
  2274                              
  2275                              ; 调试先看 R_RFPacket0~4，再看 R_RFPending0~4、R_RFRequestChannel、R_RF1IdL~R_RF3IdL。
  2276 00000610                     F_RF_ParsePacket:			; 满 36bit 后做双帧确认，再按通道码和已绑定 ID 决定是否落库
  2277 00000610 AD 0A 00            		LDA		R_RFBitCnt
  2278 00000613 C9 24               		CMP		#C_RFPacketBits36
  2279 00000615 90 5B               		BCC		RF_ParsePacket_End
  2280                              		; 旧逻辑在单帧满 36bit 后立即落库并判成功，和协议“连续两帧一致后才有效”冲突。
  2281 00000617 20 74 04            		JSR		F_RF_IsCurrentFrameConfirmed
  2282 0000061A 90 53               		BCC		RF_ParsePacket_Clear
  2283                              
  2284                              		; Packet1 bit5~4 是通道码：30h/00h 走 CH1，20h 走 CH2，其余按 CH3 处理。
  2285 0000061C AD 0C 00            		LDA		R_RFPacket1
  2286 0000061F 29 30               		AND		#30H
  2287 00000621 C9 30               		CMP		#30H
  2288 00000623 F0 0B               		BEQ		RF_ParsePacket_CH1
  2289 00000625 C9 00               		CMP		#00H
  2290 00000627 F0 07               		BEQ		RF_ParsePacket_CH1
  2291 00000629 C9 20               		CMP		#20H
  2292 0000062B F0 19               		BEQ		RF_ParsePacket_CH2
  2293 0000062D 4C 5C 06            		JMP		RF_ParsePacket_CH3
  2294                              
  2295 00000630                     RF_ParsePacket_CH1:
  2296                              		; 先把这帧归到 CH1，再做“是否允许写 CH1”的 ID/NeedPair 判断。
  2297 00000630 A9 01               		LDA		#D_RFCh1
  2298 00000632 8D 03 00            		STA		R_RFRequestChannel
  2299 00000635 20 AD 04            		JSR		F_RF_IsRequestChannelPacketAccepted
  2300 00000638 90 35               		BCC		RF_ParsePacket_Clear
  2301                              		; 验收通过才落库，并收口这次接收窗口。
  2302 0000063A 20 B1 06            		JSR		F_RF_LoadPacketToRequestChannel
  2303 0000063D 20 4A 04            		JSR		F_RF_ClearPendingFrame
  2304 00000640 20 EC 01            		JSR		F_RF_OnReceiveOK
  2305 00000643 4C 6F 06            		JMP		RF_ParsePacket_Clear
  2306                              
  2307 00000646                     RF_ParsePacket_CH2:
  2308 00000646 A9 02               		LDA		#D_RFCh2
  2309 00000648 8D 03 00            		STA		R_RFRequestChannel
  2310 0000064B 20 AD 04            		JSR		F_RF_IsRequestChannelPacketAccepted
  2311 0000064E 90 1F               		BCC		RF_ParsePacket_Clear
  2312 00000650 20 B1 06            		JSR		F_RF_LoadPacketToRequestChannel
  2313 00000653 20 4A 04            		JSR		F_RF_ClearPendingFrame
  2314 00000656 20 EC 01            		JSR		F_RF_OnReceiveOK
  2315 00000659 4C 6F 06            		JMP		RF_ParsePacket_Clear
  2316                              
  2317 0000065C                     RF_ParsePacket_CH3:
  2318 0000065C A9 03               		LDA		#D_RFCh3
  2319 0000065E 8D 03 00            		STA		R_RFRequestChannel
  2320 00000661 20 AD 04            		JSR		F_RF_IsRequestChannelPacketAccepted
  2321 00000664 90 09               		BCC		RF_ParsePacket_Clear
  2322 00000666 20 B1 06            		JSR		F_RF_LoadPacketToRequestChannel
  2323 00000669 20 4A 04            		JSR		F_RF_ClearPendingFrame
  2324 0000066C 20 EC 01            		JSR		F_RF_OnReceiveOK
  2325                              
  2326 0000066F                     RF_ParsePacket_Clear:
  2327                              		; 无论成功还是失败，都把当前帧缓存清掉，等待下一次停止位重新起帧。
  2328 0000066F 20 ED 04            		JSR		F_RF_ResetPacketBuffer
  2329                              
  2330 00000672                     RF_ParsePacket_End:
  2331 00000672 60                  		RTS
  2332                              
  2333 00000673                     F_RF_BuildPacketBitMask:		; 输入 X=0~7，输出 A=80h >> X，供 Packet0~4 的 bit1 写入复用
  2334 00000673 A9 80               		LDA		#80H
  2335                              
  2336 00000675                     RF_SetPacketMask:
  2337 00000675 E0 00               		CPX		#00H
  2338 00000677 F0 05               		BEQ		RF_SetPacketMaskDone
  2339 00000679 4A                  		LSR		A
  2340 0000067A CA                  		DEX
  2341 0000067B 4C 75 06            		JMP		RF_SetPacketMask
  2342                              
  2343 0000067E                     RF_SetPacketMaskDone:
  2344 0000067E 60                  		RTS
  2345                              
  2346                              ; 这 5 个 helper 只负责把 bit1 写到对应 Packet 字节；bit0 根本不会进这里。
  2347                              ; 调试: X=0 表示写 bit7，X=7 表示写 bit0，所以整帧在每个字节里都是 MSB first。
  2348 0000067F                     F_RF_SetBitInPacket0:			; 将当前 bit 写入 Packet0 的目标位
  2349 0000067F 20 73 06            		JSR		F_RF_BuildPacketBitMask
  2350 00000682 0D 0B 00            		ORA		R_RFPacket0
  2351 00000685 8D 0B 00            		STA		R_RFPacket0
  2352 00000688 60                  		RTS
  2353                              
  2354 00000689                     F_RF_SetBitInPacket1:			; 将当前 bit 写入 Packet1 的目标位
  2355 00000689 20 73 06            		JSR		F_RF_BuildPacketBitMask
  2356 0000068C 0D 0C 00            		ORA		R_RFPacket1
  2357 0000068F 8D 0C 00            		STA		R_RFPacket1
  2358 00000692 60                  		RTS
  2359                              
  2360 00000693                     F_RF_SetBitInPacket2:			; 将当前 bit 写入 Packet2 的目标位
  2361 00000693 20 73 06            		JSR		F_RF_BuildPacketBitMask
  2362 00000696 0D 0D 00            		ORA		R_RFPacket2
  2363 00000699 8D 0D 00            		STA		R_RFPacket2
  2364 0000069C 60                  		RTS
  2365                              
  2366 0000069D                     F_RF_SetBitInPacket3:			; 将当前 bit 写入 Packet3 的目标位
  2367 0000069D 20 73 06            		JSR		F_RF_BuildPacketBitMask
  2368 000006A0 0D 0E 00            		ORA		R_RFPacket3
  2369 000006A3 8D 0E 00            		STA		R_RFPacket3
  2370 000006A6 60                  		RTS
  2371                              
  2372 000006A7                     F_RF_SetBitInPacket4:			; 将当前 bit 写入 Packet4 的目标位
  2373 000006A7 20 73 06            		JSR		F_RF_BuildPacketBitMask
  2374 000006AA 0D 0F 00            		ORA		R_RFPacket4
  2375 000006AD 8D 0F 00            		STA		R_RFPacket4
  2376 000006B0 60                  		RTS
  2377                              
  2378                              ; 调试时把 R_RFPacket0~4 和 R_RF1IdL/TempH/TempL/Hum 等结果一起看，最容易对位。
  2379 000006B1                     F_RF_LoadPacketToRequestChannel:	; 把解析后的 ID、温度、湿度、电池状态落到当前请求通道缓存
  2380 000006B1 AD 03 00            		LDA		R_RFRequestChannel
  2381 000006B4 20 D7 00            		JSR		F_RF_LoadSelectedChannelOffsets
  2382                              
  2383 000006B7                     RF_LoadPacketToChannelCommon:
  2384 000006B7 A9 00               		LDA		#00H
  2385 000006B9 9D 1E 00            		STA		R_RF1IdH,X
  2386                              		; Packet0 = 发射器 ID 8bit。
  2387 000006BC AD 0B 00            		LDA		R_RFPacket0
  2388 000006BF 9D 1F 00            		STA		R_RF1IdL,X
  2389                              		; Packet1 低 4bit + Packet2 组成 12bit 温度原码。
  2390 000006C2 AD 0C 00            		LDA		R_RFPacket1
  2391 000006C5 29 0F               		AND		#0FH
  2392 000006C7 9D 20 00            		STA		R_RF1TempH,X
  2393 000006CA AD 0D 00            		LDA		R_RFPacket2
  2394 000006CD 9D 21 00            		STA		R_RF1TempL,X
  2395                              		; 温度字段是 12bit 补码，bit12 为符号位，这里直接做符号扩展到 16bit 存储。
  2396 000006D0 AD 0C 00            		LDA		R_RFPacket1
  2397 000006D3 29 08               		AND		#08H
  2398 000006D5 F0 08               		BEQ		RF_LoadPacketTempReady
  2399 000006D7 BD 20 00            		LDA		R_RF1TempH,X
  2400 000006DA 09 F0               		ORA		#0F0H
  2401 000006DC 9D 20 00            		STA		R_RF1TempH,X
  2402 000006DF                     RF_LoadPacketTempReady:
  2403                              		; Packet3 低 4bit + Packet4 高 4bit 组成湿度 8bit。
  2404                              		; bit24~27 当前协议忽略，bit28~35 才是湿度数据。
  2405 000006DF AD 0E 00            		LDA		R_RFPacket3
  2406 000006E2 29 0F               		AND		#0FH
  2407 000006E4 0A                  		ASL		A
  2408 000006E5 0A                  		ASL		A
  2409 000006E6 0A                  		ASL		A
  2410 000006E7 0A                  		ASL		A
  2411 000006E8 9D 22 00            		STA		R_RF1Hum,X
  2412 000006EB AD 0F 00            		LDA		R_RFPacket4
  2413 000006EE 4A                  		LSR		A
  2414 000006EF 4A                  		LSR		A
  2415 000006F0 4A                  		LSR		A
  2416 000006F1 4A                  		LSR		A
  2417 000006F2 1D 22 00            		ORA		R_RF1Hum,X
  2418                              		; 湿度字段是反码，例: C1h 实际应还原成 3Eh(62)。
  2419 000006F5 49 FF               		EOR		#0FFH
  2420 000006F7 9D 22 00            		STA		R_RF1Hum,X
  2421 000006FA AD 0C 00            		LDA		R_RFPacket1
  2422 000006FD 29 80               		AND		#80H
  2423 000006FF D0 0B               		BNE		RF_LoadPacketBatteryNormal
  2424                              		; Packet1 bit7 = 0 表示低电。
  2425 00000701 BD 1D 00            		LDA		R_RF1Flags,X
  2426 00000704 09 02               		ORA		#D_RFLowBat
  2427 00000706 9D 1D 00            		STA		R_RF1Flags,X
  2428 00000709 4C 14 07            		JMP		RF_LoadPacketTrendUpdate
  2429 0000070C                     RF_LoadPacketBatteryNormal:
  2430 0000070C BD 1D 00            		LDA		R_RF1Flags,X
  2431 0000070F 29 FD               		AND		#(.NOT.(D_RFLowBat))
  2432 00000711 9D 1D 00            		STA		R_RF1Flags,X
  2433                              
  2434 00000714                     RF_LoadPacketTrendUpdate:
  2435                              		; 室外趋势以“成功收下一帧新样本”为更新时机，
  2436                              		; 这样节拍跟室内 Alarm 的采样更新一致，不会被 LCD 刷新频率放大。
  2437 00000714 20 18 07            		JSR		F_RF_UpdateSelectedChannelTrend
  2438 00000717 60                  		RTS
  2439                              
  2440                              ; 输入: X=通道记录偏移(0/10/20), Y=趋势索引(0/1/2)。
  2441                              ; 输出: 按当前通道新样本更新温度/湿度趋势窗口和 Up/Down/Eq 状态位。
  2442 00000718                     F_RF_UpdateSelectedChannelTrend:
  2443 00000718 B9 3B 00            		LDA		R_RFTrendFlags,Y
  2444 0000071B 29 01               		AND		#D_RFTrendInit
  2445 0000071D F0 0E               		BEQ		RF_TrendSeedCurrent
  2446 0000071F B9 3B 00            		LDA		R_RFTrendFlags,Y
  2447 00000722 29 B7               		AND		#(.NOT.(D_RFTrendTempRefresh+D_RFTrendHumRefresh))
  2448 00000724 99 3B 00            		STA		R_RFTrendFlags,Y
  2449 00000727 20 68 07            		JSR		F_RF_UpdateSelectedChannelTempTrend
  2450 0000072A 4C F7 07            		JMP		F_RF_UpdateSelectedChannelHumTrend
  2451                              
  2452 0000072D                     RF_TrendSeedCurrent:
  2453 0000072D 20 41 07            		JSR		F_RF_SeedSelectedChannelTempTrend
  2454 00000730 20 59 07            		JSR		F_RF_SeedSelectedChannelHumTrend
  2455 00000733 A9 3C               		LDA		#C_RFTrendEq60Samples
  2456 00000735 99 3E 00            		STA		R_RFTrendTempEqCnt,Y
  2457 00000738 99 41 00            		STA		R_RFTrendHumEqCnt,Y
  2458 0000073B A9 49               		LDA		#(D_RFTrendInit+D_RFTrendTempRefresh+D_RFTrendHumRefresh)
  2459 0000073D 99 3B 00            		STA		R_RFTrendFlags,Y
  2460 00000740 60                  		RTS
  2461                              
  2462 00000741                     F_RF_SeedSelectedChannelTempTrend:
  2463 00000741 BD 20 00            		LDA		R_RF1TempH,X
  2464 00000744 99 44 00            		STA		R_RFTrendTempMaxH,Y
  2465 00000747 99 4A 00            		STA		R_RFTrendTempMinH,Y
  2466 0000074A BD 21 00            		LDA		R_RF1TempL,X
  2467 0000074D 99 47 00            		STA		R_RFTrendTempMaxL,Y
  2468 00000750 99 4D 00            		STA		R_RFTrendTempMinL,Y
  2469 00000753 A9 00               		LDA		#00H
  2470 00000755 99 3E 00            		STA		R_RFTrendTempEqCnt,Y
  2471 00000758 60                  		RTS
  2472                              
  2473 00000759                     F_RF_SeedSelectedChannelHumTrend:
  2474 00000759 BD 22 00            		LDA		R_RF1Hum,X
  2475 0000075C 99 50 00            		STA		R_RFTrendHumMax,Y
  2476 0000075F 99 53 00            		STA		R_RFTrendHumMin,Y
  2477 00000762 A9 00               		LDA		#00H
  2478 00000764 99 41 00            		STA		R_RFTrendHumEqCnt,Y
  2479 00000767 60                  		RTS
  2480                              
  2481                              ; 温度趋势判定直接复用室内趋势的判定门限和符号比较方式，
  2482                              ; 区别只在当前样本改成 RF 通道缓存里的 16bit 补码温度。
  2483 00000768                     F_RF_UpdateSelectedChannelTempTrend:
  2484 00000768 20 7C 08            		JSR		F_RF_IsCurrentTrendTempGreaterThanMax
  2485 0000076B 90 33               		BCC		RF_TrendTempCheckMin
  2486 0000076D BD 20 00            		LDA		R_RF1TempH,X
  2487 00000770 99 44 00            		STA		R_RFTrendTempMaxH,Y
  2488 00000773 BD 21 00            		LDA		R_RF1TempL,X
  2489 00000776 99 47 00            		STA		R_RFTrendTempMaxL,Y
  2490 00000779 20 04 09            		JSR		F_RF_IsTrendTempSpanOverThreshold
  2491 0000077C 90 5A               		BCC		RF_TrendTempAdvanceEq
  2492 0000077E 20 41 07            		JSR		F_RF_SeedSelectedChannelTempTrend
  2493 00000781 B9 3B 00            		LDA		R_RFTrendFlags,Y
  2494 00000784 29 06               		AND		#(D_RFTrendTempUp+D_RFTrendTempDown)
  2495 00000786 C9 02               		CMP		#D_RFTrendTempUp
  2496 00000788 F0 0B               		BEQ		RF_TrendTempSetUpNoRefresh
  2497 0000078A B9 3B 00            		LDA		R_RFTrendFlags,Y
  2498 0000078D 29 FB               		AND		#(.NOT.(D_RFTrendTempDown))
  2499 0000078F 09 0A               		ORA		#(D_RFTrendTempUp+D_RFTrendTempRefresh)
  2500 00000791 99 3B 00            		STA		R_RFTrendFlags,Y
  2501 00000794 60                  		RTS
  2502                              
  2503 00000795                     RF_TrendTempSetUpNoRefresh:
  2504 00000795 B9 3B 00            		LDA		R_RFTrendFlags,Y
  2505 00000798 29 FB               		AND		#(.NOT.(D_RFTrendTempDown))
  2506 0000079A 09 02               		ORA		#D_RFTrendTempUp
  2507 0000079C 99 3B 00            		STA		R_RFTrendFlags,Y
  2508 0000079F 60                  		RTS
  2509                              
  2510 000007A0                     RF_TrendTempCheckMin:
  2511 000007A0 20 C0 08            		JSR		F_RF_IsCurrentTrendTempLessThanMin
  2512 000007A3 90 33               		BCC		RF_TrendTempAdvanceEq
  2513 000007A5 BD 20 00            		LDA		R_RF1TempH,X
  2514 000007A8 99 4A 00            		STA		R_RFTrendTempMinH,Y
  2515 000007AB BD 21 00            		LDA		R_RF1TempL,X
  2516 000007AE 99 4D 00            		STA		R_RFTrendTempMinL,Y
  2517 000007B1 20 04 09            		JSR		F_RF_IsTrendTempSpanOverThreshold
  2518 000007B4 90 22               		BCC		RF_TrendTempAdvanceEq
  2519 000007B6 20 41 07            		JSR		F_RF_SeedSelectedChannelTempTrend
  2520 000007B9 B9 3B 00            		LDA		R_RFTrendFlags,Y
  2521 000007BC 29 06               		AND		#(D_RFTrendTempUp+D_RFTrendTempDown)
  2522 000007BE C9 04               		CMP		#D_RFTrendTempDown
  2523 000007C0 F0 0B               		BEQ		RF_TrendTempSetDownNoRefresh
  2524 000007C2 B9 3B 00            		LDA		R_RFTrendFlags,Y
  2525 000007C5 29 FD               		AND		#(.NOT.(D_RFTrendTempUp))
  2526 000007C7 09 0C               		ORA		#(D_RFTrendTempDown+D_RFTrendTempRefresh)
  2527 000007C9 99 3B 00            		STA		R_RFTrendFlags,Y
  2528 000007CC 60                  		RTS
  2529                              
  2530 000007CD                     RF_TrendTempSetDownNoRefresh:
  2531 000007CD B9 3B 00            		LDA		R_RFTrendFlags,Y
  2532 000007D0 29 FD               		AND		#(.NOT.(D_RFTrendTempUp))
  2533 000007D2 09 04               		ORA		#D_RFTrendTempDown
  2534 000007D4 99 3B 00            		STA		R_RFTrendFlags,Y
  2535 000007D7 60                  		RTS
  2536                              
  2537 000007D8                     RF_TrendTempAdvanceEq:
  2538 000007D8 B9 3E 00            		LDA		R_RFTrendTempEqCnt,Y
  2539 000007DB C9 3C               		CMP		#C_RFTrendEq60Samples
  2540 000007DD B0 17               		BCS		RF_TrendTempExit
  2541 000007DF 18                  		CLC
  2542 000007E0 69 01               		ADC		#01H
  2543 000007E2 99 3E 00            		STA		R_RFTrendTempEqCnt,Y
  2544 000007E5 B9 3E 00            		LDA		R_RFTrendTempEqCnt,Y
  2545 000007E8 C9 3C               		CMP		#C_RFTrendEq60Samples
  2546 000007EA D0 0A               		BNE		RF_TrendTempExit
  2547 000007EC B9 3B 00            		LDA		R_RFTrendFlags,Y
  2548 000007EF 29 F9               		AND		#(.NOT.(D_RFTrendTempUp+D_RFTrendTempDown))
  2549 000007F1 09 08               		ORA		#D_RFTrendTempRefresh
  2550 000007F3 99 3B 00            		STA		R_RFTrendFlags,Y
  2551 000007F6                     RF_TrendTempExit:
  2552 000007F6 60                  		RTS
  2553                              
  2554 000007F7                     F_RF_UpdateSelectedChannelHumTrend:
  2555 000007F7 BD 22 00            		LDA		R_RF1Hum,X
  2556 000007FA D9 50 00            		CMP		R_RFTrendHumMax,Y
  2557 000007FD 90 2C               		BCC		RF_TrendHumCheckMin
  2558 000007FF F0 2A               		BEQ		RF_TrendHumCheckMin
  2559 00000801 99 50 00            		STA		R_RFTrendHumMax,Y
  2560 00000804 20 6D 09            		JSR		F_RF_IsTrendHumSpanOverThreshold
  2561 00000807 90 54               		BCC		RF_TrendHumAdvanceEq
  2562 00000809 20 59 07            		JSR		F_RF_SeedSelectedChannelHumTrend
  2563 0000080C B9 3B 00            		LDA		R_RFTrendFlags,Y
  2564 0000080F 29 30               		AND		#(D_RFTrendHumUp+D_RFTrendHumDown)
  2565 00000811 C9 10               		CMP		#D_RFTrendHumUp
  2566 00000813 F0 0B               		BEQ		RF_TrendHumSetUpNoRefresh
  2567 00000815 B9 3B 00            		LDA		R_RFTrendFlags,Y
  2568 00000818 29 DF               		AND		#(.NOT.(D_RFTrendHumDown))
  2569 0000081A 09 50               		ORA		#(D_RFTrendHumUp+D_RFTrendHumRefresh)
  2570 0000081C 99 3B 00            		STA		R_RFTrendFlags,Y
  2571 0000081F 60                  		RTS
  2572                              
  2573 00000820                     RF_TrendHumSetUpNoRefresh:
  2574 00000820 B9 3B 00            		LDA		R_RFTrendFlags,Y
  2575 00000823 29 DF               		AND		#(.NOT.(D_RFTrendHumDown))
  2576 00000825 09 10               		ORA		#D_RFTrendHumUp
  2577 00000827 99 3B 00            		STA		R_RFTrendFlags,Y
  2578 0000082A 60                  		RTS
  2579                              
  2580 0000082B                     RF_TrendHumCheckMin:
  2581 0000082B BD 22 00            		LDA		R_RF1Hum,X
  2582 0000082E D9 53 00            		CMP		R_RFTrendHumMin,Y
  2583 00000831 B0 2A               		BCS		RF_TrendHumAdvanceEq
  2584 00000833 99 53 00            		STA		R_RFTrendHumMin,Y
  2585 00000836 20 6D 09            		JSR		F_RF_IsTrendHumSpanOverThreshold
  2586 00000839 90 22               		BCC		RF_TrendHumAdvanceEq
  2587 0000083B 20 59 07            		JSR		F_RF_SeedSelectedChannelHumTrend
  2588 0000083E B9 3B 00            		LDA		R_RFTrendFlags,Y
  2589 00000841 29 30               		AND		#(D_RFTrendHumUp+D_RFTrendHumDown)
  2590 00000843 C9 20               		CMP		#D_RFTrendHumDown
  2591 00000845 F0 0B               		BEQ		RF_TrendHumSetDownNoRefresh
  2592 00000847 B9 3B 00            		LDA		R_RFTrendFlags,Y
  2593 0000084A 29 EF               		AND		#(.NOT.(D_RFTrendHumUp))
  2594 0000084C 09 60               		ORA		#(D_RFTrendHumDown+D_RFTrendHumRefresh)
  2595 0000084E 99 3B 00            		STA		R_RFTrendFlags,Y
  2596 00000851 60                  		RTS
  2597                              
  2598 00000852                     RF_TrendHumSetDownNoRefresh:
  2599 00000852 B9 3B 00            		LDA		R_RFTrendFlags,Y
  2600 00000855 29 EF               		AND		#(.NOT.(D_RFTrendHumUp))
  2601 00000857 09 20               		ORA		#D_RFTrendHumDown
  2602 00000859 99 3B 00            		STA		R_RFTrendFlags,Y
  2603 0000085C 60                  		RTS
  2604                              
  2605 0000085D                     RF_TrendHumAdvanceEq:
  2606 0000085D B9 41 00            		LDA		R_RFTrendHumEqCnt,Y
  2607 00000860 C9 3C               		CMP		#C_RFTrendEq60Samples
  2608 00000862 B0 17               		BCS		RF_TrendHumExit
  2609 00000864 18                  		CLC
  2610 00000865 69 01               		ADC		#01H
  2611 00000867 99 41 00            		STA		R_RFTrendHumEqCnt,Y
  2612 0000086A B9 41 00            		LDA		R_RFTrendHumEqCnt,Y
  2613 0000086D C9 3C               		CMP		#C_RFTrendEq60Samples
  2614 0000086F D0 0A               		BNE		RF_TrendHumExit
  2615 00000871 B9 3B 00            		LDA		R_RFTrendFlags,Y
  2616 00000874 29 CF               		AND		#(.NOT.(D_RFTrendHumUp+D_RFTrendHumDown))
  2617 00000876 09 40               		ORA		#D_RFTrendHumRefresh
  2618 00000878 99 3B 00            		STA		R_RFTrendFlags,Y
  2619 0000087B                     RF_TrendHumExit:
  2620 0000087B 60                  		RTS
  2621                              
  2622 0000087C                     F_RF_IsCurrentTrendTempGreaterThanMax:
  2623 0000087C BD 20 00            		LDA		R_RF1TempH,X
  2624 0000087F 29 80               		AND		#80H
  2625 00000881 F0 1C               		BEQ		RF_TrendTempGtMax_CurrentPos
  2626 00000883 B9 44 00            		LDA		R_RFTrendTempMaxH,Y
  2627 00000886 29 80               		AND		#80H
  2628 00000888 F0 34               		BEQ		RF_TrendTempGtMax_False
  2629 0000088A BD 20 00            		LDA		R_RF1TempH,X
  2630 0000088D D9 44 00            		CMP		R_RFTrendTempMaxH,Y
  2631 00000890 90 2A               		BCC		RF_TrendTempGtMax_True
  2632 00000892 D0 2A               		BNE		RF_TrendTempGtMax_False
  2633 00000894 BD 21 00            		LDA		R_RF1TempL,X
  2634 00000897 D9 47 00            		CMP		R_RFTrendTempMaxL,Y
  2635 0000089A 90 20               		BCC		RF_TrendTempGtMax_True
  2636 0000089C 4C BE 08            		JMP		RF_TrendTempGtMax_False
  2637                              
  2638 0000089F                     RF_TrendTempGtMax_CurrentPos:
  2639 0000089F B9 44 00            		LDA		R_RFTrendTempMaxH,Y
  2640 000008A2 29 80               		AND		#80H
  2641 000008A4 D0 16               		BNE		RF_TrendTempGtMax_True
  2642 000008A6 BD 20 00            		LDA		R_RF1TempH,X
  2643 000008A9 29 7F               		AND		#7FH
  2644 000008AB D9 44 00            		CMP		R_RFTrendTempMaxH,Y
  2645 000008AE 90 0E               		BCC		RF_TrendTempGtMax_False
  2646 000008B0 D0 0A               		BNE		RF_TrendTempGtMax_True
  2647 000008B2 BD 21 00            		LDA		R_RF1TempL,X
  2648 000008B5 D9 47 00            		CMP		R_RFTrendTempMaxL,Y
  2649 000008B8 90 04               		BCC		RF_TrendTempGtMax_False
  2650 000008BA F0 02               		BEQ		RF_TrendTempGtMax_False
  2651                              
  2652 000008BC                     RF_TrendTempGtMax_True:
  2653 000008BC 38                  		SEC
  2654 000008BD 60                  		RTS
  2655                              
  2656 000008BE                     RF_TrendTempGtMax_False:
  2657 000008BE 18                  		CLC
  2658 000008BF 60                  		RTS
  2659                              
  2660 000008C0                     F_RF_IsCurrentTrendTempLessThanMin:
  2661 000008C0 BD 20 00            		LDA		R_RF1TempH,X
  2662 000008C3 29 80               		AND		#80H
  2663 000008C5 F0 1E               		BEQ		RF_TrendTempLtMin_CurrentPos
  2664 000008C7 B9 4A 00            		LDA		R_RFTrendTempMinH,Y
  2665 000008CA 29 80               		AND		#80H
  2666 000008CC F0 34               		BEQ		RF_TrendTempLtMin_True
  2667 000008CE BD 20 00            		LDA		R_RF1TempH,X
  2668 000008D1 D9 4A 00            		CMP		R_RFTrendTempMinH,Y
  2669 000008D4 90 2A               		BCC		RF_TrendTempLtMin_False
  2670 000008D6 D0 2A               		BNE		RF_TrendTempLtMin_True
  2671 000008D8 BD 21 00            		LDA		R_RF1TempL,X
  2672 000008DB D9 4D 00            		CMP		R_RFTrendTempMinL,Y
  2673 000008DE 90 20               		BCC		RF_TrendTempLtMin_False
  2674 000008E0 F0 1E               		BEQ		RF_TrendTempLtMin_False
  2675 000008E2 4C 02 09            		JMP		RF_TrendTempLtMin_True
  2676                              
  2677 000008E5                     RF_TrendTempLtMin_CurrentPos:
  2678 000008E5 B9 4A 00            		LDA		R_RFTrendTempMinH,Y
  2679 000008E8 29 80               		AND		#80H
  2680 000008EA D0 14               		BNE		RF_TrendTempLtMin_False
  2681 000008EC BD 20 00            		LDA		R_RF1TempH,X
  2682 000008EF 29 7F               		AND		#7FH
  2683 000008F1 D9 4A 00            		CMP		R_RFTrendTempMinH,Y
  2684 000008F4 90 0C               		BCC		RF_TrendTempLtMin_True
  2685 000008F6 D0 08               		BNE		RF_TrendTempLtMin_False
  2686 000008F8 BD 21 00            		LDA		R_RF1TempL,X
  2687 000008FB D9 4D 00            		CMP		R_RFTrendTempMinL,Y
  2688 000008FE 90 02               		BCC		RF_TrendTempLtMin_True
  2689                              
  2690 00000900                     RF_TrendTempLtMin_False:
  2691 00000900 18                  		CLC
  2692 00000901 60                  		RTS
  2693                              
  2694 00000902                     RF_TrendTempLtMin_True:
  2695 00000902 38                  		SEC
  2696 00000903 60                  		RTS
  2697                              
  2698 00000904                     F_RF_IsTrendTempSpanOverThreshold:
  2699 00000904 B9 44 00            		LDA		R_RFTrendTempMaxH,Y
  2700 00000907 29 80               		AND		#80H
  2701 00000909 F0 1E               		BEQ		RF_TrendTempSpan_MaxPositive
  2702 0000090B 38                  		SEC
  2703 0000090C B9 4D 00            		LDA		R_RFTrendTempMinL,Y
  2704 0000090F F9 47 00            		SBC		R_RFTrendTempMaxL,Y
  2705 00000912 8D 56 00            		STA		R_RFTrendCmpL
  2706 00000915 B9 4A 00            		LDA		R_RFTrendTempMinH,Y
  2707 00000918 F9 44 00            		SBC		R_RFTrendTempMaxH,Y
  2708 0000091B 90 4E               		BCC		RF_TrendTempSpan_False
  2709 0000091D D0 4A               		BNE		RF_TrendTempSpan_True
  2710 0000091F AD 56 00            		LDA		R_RFTrendCmpL
  2711 00000922 C9 0B               		CMP		#C_RFTrendTempOver1C
  2712 00000924 90 45               		BCC		RF_TrendTempSpan_False
  2713 00000926 4C 69 09            		JMP		RF_TrendTempSpan_True
  2714                              
  2715 00000929                     RF_TrendTempSpan_MaxPositive:
  2716 00000929 B9 4A 00            		LDA		R_RFTrendTempMinH,Y
  2717 0000092C 29 80               		AND		#80H
  2718 0000092E D0 1E               		BNE		RF_TrendTempSpan_CrossZero
  2719 00000930 38                  		SEC
  2720 00000931 B9 47 00            		LDA		R_RFTrendTempMaxL,Y
  2721 00000934 F9 4D 00            		SBC		R_RFTrendTempMinL,Y
  2722 00000937 8D 56 00            		STA		R_RFTrendCmpL
  2723 0000093A B9 44 00            		LDA		R_RFTrendTempMaxH,Y
  2724 0000093D F9 4A 00            		SBC		R_RFTrendTempMinH,Y
  2725 00000940 90 29               		BCC		RF_TrendTempSpan_False
  2726 00000942 D0 25               		BNE		RF_TrendTempSpan_True
  2727 00000944 AD 56 00            		LDA		R_RFTrendCmpL
  2728 00000947 C9 0B               		CMP		#C_RFTrendTempOver1C
  2729 00000949 90 20               		BCC		RF_TrendTempSpan_False
  2730 0000094B 4C 69 09            		JMP		RF_TrendTempSpan_True
  2731                              
  2732 0000094E                     RF_TrendTempSpan_CrossZero:
  2733 0000094E 18                  		CLC
  2734 0000094F B9 47 00            		LDA		R_RFTrendTempMaxL,Y
  2735 00000952 79 4D 00            		ADC		R_RFTrendTempMinL,Y
  2736 00000955 8D 56 00            		STA		R_RFTrendCmpL
  2737 00000958 B9 4A 00            		LDA		R_RFTrendTempMinH,Y
  2738 0000095B 29 7F               		AND		#7FH
  2739 0000095D 79 44 00            		ADC		R_RFTrendTempMaxH,Y
  2740 00000960 D0 07               		BNE		RF_TrendTempSpan_True
  2741 00000962 AD 56 00            		LDA		R_RFTrendCmpL
  2742 00000965 C9 0B               		CMP		#C_RFTrendTempOver1C
  2743 00000967 90 02               		BCC		RF_TrendTempSpan_False
  2744                              
  2745 00000969                     RF_TrendTempSpan_True:
  2746 00000969 38                  		SEC
  2747 0000096A 60                  		RTS
  2748                              
  2749 0000096B                     RF_TrendTempSpan_False:
  2750 0000096B 18                  		CLC
  2751 0000096C 60                  		RTS
  2752                              
  2753 0000096D                     F_RF_IsTrendHumSpanOverThreshold:
  2754 0000096D 38                  		SEC
  2755 0000096E B9 50 00            		LDA		R_RFTrendHumMax,Y
  2756 00000971 F9 53 00            		SBC		R_RFTrendHumMin,Y
  2757 00000974 C9 06               		CMP		#C_RFTrendHumOver5
  2758 00000976 90 02               		BCC		RF_TrendHumSpan_False
  2759 00000978 38                  		SEC
  2760 00000979 60                  		RTS
  2761                              
  2762 0000097A                     RF_TrendHumSpan_False:
  2763 0000097A 18                  		CLC
  2764 0000097B 60                  		RTS
0 Error(s), 0 Warning(s).
